Certificate:
    Data:
        Version: 3 (0x2)
        Serial Number: 6 (0x6)
        Signature Algorithm: sha256WithRSAEncryption
        Issuer: C=DE, CN=CA3
        Validity
            Not Before: Apr  7 16:27:13 2024 GMT
            Not After : Feb 17 16:27:13 2034 GMT
        Subject: C=DE, CN=CA3
        Subject Public Key Info:
            Public Key Algorithm: rsaEncryption
                Public-Key: (2048 bit)
                Modulus:
                    00:9c:0f:cf:62:42:57:9b:66:bb:4e:85:a1:c7:e4:
                    d7:5f:eb:52:e8:ec:12:c7:a6:c5:26:6e:c9:85:c2:
                    9a:a1:7c:ac:0a:bb:96:65:c7:dd:46:55:f1:03:8a:
                    b0:9f:2b:3c:56:d1:21:c6:b8:f8:9d:ef:99:cf:02:
                    1c:a0:aa:a1:ae:9a:04:d6:c2:d5:d0:6d:4c:42:e7:
                    84:a9:e7:16:cf:12:f4:a6:e4:c8:7e:9b:98:31:86:
                    b4:4b:b9:d0:11:b6:08:1e:43:77:db:35:20:8d:8d:
                    1f:f7:3b:64:85:16:f1:52:97:38:ff:52:6b:36:55:
                    49:f3:3b:80:71:58:68:f7:e4:dc:fb:a6:60:17:bc:
                    56:7c:1c:4b:3d:ca:27:e3:de:30:2b:d5:cd:1e:b1:
                    47:de:ce:8c:af:c0:3f:4c:e5:b8:bf:95:e0:52:60:
                    c3:7b:eb:b3:b4:c3:c5:78:49:f8:a6:df:0a:05:1c:
                    52:28:f7:9b:30:26:7a:d1:ae:1f:00:33:0b:f7:f0:
                    c3:b9:e4:e7:63:9f:8e:0e:51:1b:43:44:cc:aa:4f:
                    8a:28:fd:5b:a1:c6:2a:19:0c:85:39:44:20:9b:ad:
                    ce:d0:b5:e8:95:01:2c:69:35:8d:dd:0b:3c:4c:d2:
                    9b:66:13:a1:39:9b:c0:10:f6:5b:0f:89:92:53:20:
                    82:39
                Exponent: 65537 (0x10001)
        X509v3 extensions:
            X509v3 Basic Constraints: critical
                CA:TRUE
            X509v3 Key Usage: critical
                Certificate Sign
            X509v3 Subject Alternative Name: critical
                URI:urn:uuid:CA3
            X509v3 Subject Key Identifier: 
                CD:C2:BE:E0:05:B2:8C:54:F1:B7:84:69:F6:BB:EC:EB:F9:4F:73:BC
    Signature Algorithm: sha256WithRSAEncryption
    Signature Value:
        45:8b:22:f9:0b:9b:ec:1e:4d:01:b0:65:0c:f0:a6:56:6d:42:
        6e:2a:41:b0:04:f3:e4:5b:3c:3e:f7:19:75:64:1a:2c:00:de:
        e8:9f:83:e6:bd:d0:dd:8d:b9:2f:20:6e:56:79:9a:37:b5:a6:
        95:c7:ba:b4:1a:c4:fb:92:e4:6f:c3:74:a8:49:dc:5f:d2:1a:
        22:76:14:46:57:9d:01:9d:ad:34:03:c4:08:4f:23:14:04:bb:
        d5:1b:cf:b9:1d:90:cb:0b:cd:16:92:dd:ca:41:04:35:52:85:
        77:54:ff:0a:70:44:b9:45:b3:03:e5:d8:e5:37:43:18:22:01:
        74:58:4b:6a:61:9f:49:5e:c4:71:d3:48:68:aa:2d:20:db:c4:
        bc:23:46:7f:b4:de:13:27:52:c9:1f:57:e4:7c:d4:df:30:eb:
        01:c6:e7:f7:d2:42:5f:d7:4b:b3:b8:fa:71:28:e8:72:4f:80:
        d0:91:71:4c:f1:85:47:c6:3e:db:7a:ba:1f:83:0d:12:cc:37:
        6f:ee:87:6f:e2:c1:96:08:c6:80:a5:80:89:89:ae:28:f0:ac:
        7a:f3:c9:39:a4:ad:b5:47:02:45:35:5a:25:80:7c:ad:18:b0:
        87:5d:f4:98:ab:4e:c6:8f:bd:a7:b3:6d:b1:25:da:27:79:c3:
        f4:74:77:f8
-----BEGIN CERTIFICATE-----
MIIDDzCCAfegAwIBAgIBBjANBgkqhkiG9w0BAQsFADAbMQswCQYDVQQGEwJERTEM
MAoGA1UEAwwDQ0EzMB4XDTI0MDQwNzE2MjcxM1oXDTM0MDIxNzE2MjcxM1owGzEL
MAkGA1UEBhMCREUxDDAKBgNVBAMMA0NBMzCCASIwDQYJKoZIhvcNAQEBBQADggEP
ADCCAQoCggEBAJwPz2JCV5tmu06Focfk11/rUujsEsemxSZuyYXCmqF8rAq7lmXH
3UZV8QOKsJ8rPFbRIca4+J3vmc8CHKCqoa6aBNbC1dBtTELnhKnnFs8S9KbkyH6b
mDGGtEu50BG2CB5Dd9s1II2NH/c7ZIUW8VKXOP9SazZVSfM7gHFYaPfk3PumYBe8
VnwcSz3KJ+PeMCvVzR6xR97OjK/AP0zluL+V4FJgw3vrs7TDxXhJ+KbfCgUcUij3
mzAmetGuHwAzC/fww7nk52Ofjg5RG0NEzKpPiij9W6HGKhkMhTlEIJutztC16JUB
LGk1jd0LPEzSm2YToTmbwBD2Ww+JklMggjkCAwEAAaNeMFwwDwYDVR0TAQH/BAUw
AwEB/zAOBgNVHQ8BAf8EBAMCAgQwGgYDVR0RAQH/BBAwDoYMdXJuOnV1aWQ6Q0Ez
MB0GA1UdDgQWBBTNwr7gBbKMVPG3hGn2u+zr+U9zvDANBgkqhkiG9w0BAQsFAAOC
AQEARYsi+Qub7B5NAbBlDPCmVm1CbipBsATz5Fs8PvcZdWQaLADe6J+D5r3Q3Y25
LyBuVnmaN7Wmlce6tBrE+5Lkb8N0qEncX9IaInYURledAZ2tNAPECE8jFAS71RvP
uR2QywvNFpLdykEENVKFd1T/CnBEuUWzA+XY5TdDGCIBdFhLamGfSV7EcdNIaKot
INvEvCNGf7TeEydSyR9X5HzU3zDrAcbn99JCX9dLs7j6cSjock+A0JFxTPGFR8Y+
23q6H4MNEsw3b+6Hb+LBlgjGgKWAiYmuKPCsevPJOaSttUcCRTVaJYB8rRiwh130
mKtOxo+9p7NtsSXaJ3nD9HR3+A==
-----END CERTIFICATE-----
