Certificate:
    Data:
        Version: 3 (0x2)
        Serial Number: 4 (0x4)
        Signature Algorithm: sha256WithRSAEncryption
        Issuer: C=AT, CN=CA1
        Validity
            Not Before: Apr  7 16:18:08 2024 GMT
            Not After : Feb 17 16:18:08 2034 GMT
        Subject: C=AT, CN=CA1
        Subject Public Key Info:
            Public Key Algorithm: rsaEncryption
                Public-Key: (2048 bit)
                Modulus:
                    00:d1:07:73:57:ab:94:9f:91:a4:6a:8d:27:cb:40:
                    41:11:57:5c:28:9f:cd:d4:a0:a0:c5:d0:e4:be:de:
                    7d:50:e2:18:4e:93:60:73:d8:c3:23:84:66:51:c5:
                    95:64:e5:44:98:d0:94:a2:37:f1:cb:9d:bc:40:ea:
                    09:b2:17:40:5d:76:fd:fa:e6:27:5a:d1:3e:56:03:
                    59:5f:f5:16:3a:7c:01:98:4f:84:17:43:a4:79:47:
                    7a:97:5e:a4:5a:2d:1d:88:eb:ce:d6:ed:37:2b:dc:
                    e2:d5:07:11:c3:53:2c:ef:d6:e5:e6:6f:3c:d0:f2:
                    de:5d:7f:56:b9:43:b3:1f:f1:3e:b4:c9:c5:8a:9b:
                    39:5d:64:61:95:e6:a8:3e:ab:0d:14:07:fd:85:ba:
                    b5:f7:d6:64:b4:66:e8:2a:5b:5b:6e:b3:d5:bc:e1:
                    55:bf:37:4c:2a:f8:47:0b:bb:b3:ec:bc:b2:cd:5a:
                    14:d8:ba:3d:fd:17:4b:69:ad:8b:7e:a3:17:0a:f9:
                    b2:3f:33:70:c3:9f:70:94:21:bf:29:72:20:18:ca:
                    84:b7:4e:78:9f:0e:2a:f0:aa:09:89:40:ae:83:58:
                    ea:ad:82:d2:36:5a:e9:38:55:1a:1d:47:c7:6d:43:
                    28:29:14:28:98:1c:c4:09:32:cb:3e:5c:d6:58:97:
                    cc:65
                Exponent: 65537 (0x10001)
        X509v3 extensions:
            X509v3 Basic Constraints: critical
                CA:TRUE
            X509v3 Key Usage: critical
                Certificate Sign
            X509v3 Subject Alternative Name: critical
                URI:urn:uuid:CA1
            X509v3 Subject Key Identifier: 
                44:50:72:F4:26:DD:CB:02:1B:D2:69:57:CF:07:87:1B:A0:B1:8A:3C
    Signature Algorithm: sha256WithRSAEncryption
    Signature Value:
        20:a8:b1:db:5e:02:8b:06:f2:f6:cd:f9:8b:25:ed:ad:8d:bb:
        ae:12:7e:3d:9c:48:c2:5e:67:04:3b:4b:6d:4d:f8:38:15:4a:
        65:26:97:fb:36:47:48:64:11:fe:f3:55:d9:a8:7e:17:dd:bc:
        f7:69:75:e9:98:54:1e:b7:35:91:9d:24:92:52:80:3a:ed:e4:
        52:53:f6:53:7f:4e:1a:1e:ae:95:17:78:19:ab:de:54:80:0a:
        b7:43:7f:80:73:ca:60:9c:70:4c:40:79:69:73:f5:8b:1d:56:
        56:eb:bc:10:1e:2e:43:3e:0a:99:91:94:53:7e:6a:99:87:a8:
        34:ec:22:7b:a6:5e:50:22:e7:8d:55:9e:92:ac:cd:d2:ac:1c:
        f6:5b:59:d5:16:e8:11:32:d9:f6:22:cc:22:68:02:5d:ce:56:
        4f:1c:3e:79:1e:87:d2:f0:0d:e6:a7:4d:f4:d6:94:4d:5c:6a:
        67:72:06:ba:c5:0c:06:6a:8e:2f:51:eb:be:bf:7e:0a:cd:9b:
        0b:de:c6:0a:81:88:fa:d9:d1:25:34:d7:da:26:36:08:61:80:
        24:67:72:26:40:9a:b6:e5:f1:4a:ce:90:6c:37:00:28:fa:c9:
        79:8a:dd:45:d6:95:23:3f:ac:e2:70:e3:9d:cc:70:4c:da:46:
        8e:6c:25:a8
-----BEGIN CERTIFICATE-----
MIIDDzCCAfegAwIBAgIBBDANBgkqhkiG9w0BAQsFADAbMQswCQYDVQQGEwJBVDEM
MAoGA1UEAwwDQ0ExMB4XDTI0MDQwNzE2MTgwOFoXDTM0MDIxNzE2MTgwOFowGzEL
MAkGA1UEBhMCQVQxDDAKBgNVBAMMA0NBMTCCASIwDQYJKoZIhvcNAQEBBQADggEP
ADCCAQoCggEBANEHc1erlJ+RpGqNJ8tAQRFXXCifzdSgoMXQ5L7efVDiGE6TYHPY
wyOEZlHFlWTlRJjQlKI38cudvEDqCbIXQF12/frmJ1rRPlYDWV/1Fjp8AZhPhBdD
pHlHepdepFotHYjrztbtNyvc4tUHEcNTLO/W5eZvPNDy3l1/VrlDsx/xPrTJxYqb
OV1kYZXmqD6rDRQH/YW6tffWZLRm6CpbW26z1bzhVb83TCr4Rwu7s+y8ss1aFNi6
Pf0XS2mti36jFwr5sj8zcMOfcJQhvylyIBjKhLdOeJ8OKvCqCYlAroNY6q2C0jZa
6ThVGh1Hx21DKCkUKJgcxAkyyz5c1liXzGUCAwEAAaNeMFwwDwYDVR0TAQH/BAUw
AwEB/zAOBgNVHQ8BAf8EBAMCAgQwGgYDVR0RAQH/BBAwDoYMdXJuOnV1aWQ6Q0Ex
MB0GA1UdDgQWBBREUHL0Jt3LAhvSaVfPB4cboLGKPDANBgkqhkiG9w0BAQsFAAOC
AQEAIKix214Ciwby9s35iyXtrY27rhJ+PZxIwl5nBDtLbU34OBVKZSaX+zZHSGQR
/vNV2ah+F92892l16ZhUHrc1kZ0kklKAOu3kUlP2U39OGh6ulRd4GaveVIAKt0N/
gHPKYJxwTEB5aXP1ix1WVuu8EB4uQz4KmZGUU35qmYeoNOwie6ZeUCLnjVWekqzN
0qwc9ltZ1RboETLZ9iLMImgCXc5WTxw+eR6H0vAN5qdN9NaUTVxqZ3IGusUMBmqO
L1Hrvr9+Cs2bC97GCoGI+tnRJTTX2iY2CGGAJGdyJkCatuXxSs6QbDcAKPrJeYrd
RdaVIz+s4nDjncxwTNpGjmwlqA==
-----END CERTIFICATE-----
