Certificate:
    Data:
        Version: 3 (0x2)
        Serial Number: 6 (0x6)
        Signature Algorithm: sha256WithRSAEncryption
        Issuer: C=PL, CN=CA4
        Validity
            Not Before: Apr  7 16:30:21 2024 GMT
            Not After : Feb 17 16:30:21 2034 GMT
        Subject: C=PL, CN=CA4
        Subject Public Key Info:
            Public Key Algorithm: rsaEncryption
                Public-Key: (2048 bit)
                Modulus:
                    00:c6:07:9b:97:99:cb:56:ee:e1:bb:9c:16:e9:ae:
                    e6:89:de:30:3f:8d:6a:34:3d:bc:c4:6e:7e:35:27:
                    b3:33:fc:f4:96:b9:a6:50:36:f7:ac:5a:90:85:13:
                    df:02:4a:8e:34:8d:e6:d1:af:4b:db:fb:6c:02:e8:
                    91:47:cf:5e:e4:fa:39:8d:94:c5:96:56:38:5c:c7:
                    6e:2d:ac:2f:e2:47:35:be:6d:a1:91:74:da:03:65:
                    4e:d0:a6:c3:16:06:4d:63:b4:fd:fd:e0:c9:95:1f:
                    9b:11:4e:ee:4d:5c:c5:67:f5:c8:f9:82:85:f2:46:
                    2e:a9:96:5d:44:1a:dc:36:bb:59:6f:6b:68:53:12:
                    11:86:5d:18:1f:a4:71:5e:ce:47:5c:30:55:49:24:
                    9d:81:1d:f7:a5:2a:7e:3c:91:c5:7c:92:7f:50:d7:
                    5d:5f:d7:05:81:e5:df:cb:72:45:70:98:cf:1f:2a:
                    01:8c:29:cd:e6:b5:89:98:fa:24:3d:c4:eb:8e:0f:
                    fd:eb:b5:2f:61:0d:7e:d8:18:af:75:ce:b7:86:31:
                    e7:e3:f1:5b:03:c5:c4:00:40:f6:b0:d8:92:17:ea:
                    ee:6a:52:65:08:8c:2c:ea:1b:ae:d7:9f:52:39:d1:
                    df:09:e6:6a:8b:97:fc:e3:24:f2:ee:17:16:e0:69:
                    aa:41
                Exponent: 65537 (0x10001)
        X509v3 extensions:
            X509v3 Basic Constraints: critical
                CA:TRUE
            X509v3 Key Usage: critical
                Certificate Sign
            X509v3 Subject Alternative Name: critical
                URI:urn:uuid:CA4
            X509v3 Subject Key Identifier: 
                99:2F:5E:0B:2E:E3:B4:4C:37:88:77:46:B9:EE:2A:08:30:0D:12:84
    Signature Algorithm: sha256WithRSAEncryption
    Signature Value:
        bc:91:0a:62:d4:45:89:fc:86:ba:ba:fc:0c:73:10:78:fa:ad:
        8a:c6:08:61:d6:08:f0:54:84:2e:a9:6b:f6:d8:35:6a:d9:22:
        a3:d4:eb:bd:60:63:80:16:0b:b0:14:89:ac:01:00:3c:17:87:
        1e:a3:a0:6f:1a:58:74:20:66:a0:4d:8a:50:b1:e8:b2:6e:ce:
        93:9b:d3:4e:f1:ef:96:23:2e:f4:87:55:d2:5f:a8:75:d9:38:
        5a:49:a5:db:65:90:ee:76:df:78:20:4d:59:92:ba:3c:94:f4:
        94:d5:30:7e:f2:31:9e:65:2e:7c:5c:3b:0f:5e:a1:67:6f:c9:
        0b:71:c4:78:13:61:0d:c4:60:46:94:e1:3e:eb:9f:2f:bd:68:
        c6:c8:19:79:de:8a:89:be:c0:a6:be:15:7d:aa:83:7c:c5:8b:
        44:17:fd:1d:1a:2c:23:e9:da:d1:31:2a:e2:15:75:7f:d8:c9:
        3f:ea:66:8d:7b:77:5c:28:9f:d7:0b:e4:a9:c7:e1:1a:1e:19:
        29:6e:4c:f8:c0:b4:13:d4:80:f8:30:4d:f9:b9:4f:d9:c7:55:
        73:af:93:5b:71:58:e6:6b:81:85:cd:c0:32:63:e6:a9:02:8e:
        78:1a:53:d1:7d:41:25:35:d3:6c:96:03:9f:88:4a:87:ba:ae:
        da:9c:8a:e3
-----BEGIN CERTIFICATE-----
MIIDDzCCAfegAwIBAgIBBjANBgkqhkiG9w0BAQsFADAbMQswCQYDVQQGEwJQTDEM
MAoGA1UEAwwDQ0E0MB4XDTI0MDQwNzE2MzAyMVoXDTM0MDIxNzE2MzAyMVowGzEL
MAkGA1UEBhMCUEwxDDAKBgNVBAMMA0NBNDCCASIwDQYJKoZIhvcNAQEBBQADggEP
ADCCAQoCggEBAMYHm5eZy1bu4bucFumu5oneMD+NajQ9vMRufjUnszP89Ja5plA2
96xakIUT3wJKjjSN5tGvS9v7bALokUfPXuT6OY2UxZZWOFzHbi2sL+JHNb5toZF0
2gNlTtCmwxYGTWO0/f3gyZUfmxFO7k1cxWf1yPmChfJGLqmWXUQa3Da7WW9raFMS
EYZdGB+kcV7OR1wwVUkknYEd96UqfjyRxXySf1DXXV/XBYHl38tyRXCYzx8qAYwp
zea1iZj6JD3E644P/eu1L2ENftgYr3XOt4Yx5+PxWwPFxABA9rDYkhfq7mpSZQiM
LOobrtefUjnR3wnmaouX/OMk8u4XFuBpqkECAwEAAaNeMFwwDwYDVR0TAQH/BAUw
AwEB/zAOBgNVHQ8BAf8EBAMCAgQwGgYDVR0RAQH/BBAwDoYMdXJuOnV1aWQ6Q0E0
MB0GA1UdDgQWBBSZL14LLuO0TDeId0a57ioIMA0ShDANBgkqhkiG9w0BAQsFAAOC
AQEAvJEKYtRFifyGurr8DHMQePqtisYIYdYI8FSELqlr9tg1atkio9TrvWBjgBYL
sBSJrAEAPBeHHqOgbxpYdCBmoE2KULHosm7Ok5vTTvHvliMu9IdV0l+oddk4Wkml
22WQ7nbfeCBNWZK6PJT0lNUwfvIxnmUufFw7D16hZ2/JC3HEeBNhDcRgRpThPuuf
L71oxsgZed6Kib7Apr4VfaqDfMWLRBf9HRosI+na0TEq4hV1f9jJP+pmjXt3XCif
1wvkqcfhGh4ZKW5M+MC0E9SA+DBN+blP2cdVc6+TW3FY5muBhc3AMmPmqQKOeBpT
0X1BJTXTbJYDn4hKh7qu2pyK4w==
-----END CERTIFICATE-----
