Certificate:
    Data:
        Version: 3 (0x2)
        Serial Number: 8 (0x8)
        Signature Algorithm: sha256WithRSAEncryption
        Issuer: C=EU, CN=EUTrustedParty
        Validity
            Not Before: Apr  7 16:55:51 2024 GMT
            Not After : Feb 17 16:55:51 2034 GMT
        Subject: C=EU, CN=EUTrustedParty
        Subject Public Key Info:
            Public Key Algorithm: rsaEncryption
                Public-Key: (2048 bit)
                Modulus:
                    00:ce:84:bc:d2:00:cf:20:65:66:05:99:a1:87:27:
                    58:23:84:1b:b2:83:39:3e:a2:ce:f8:9e:26:6d:0c:
                    03:5e:9b:3e:aa:1a:2b:4a:52:44:0c:8c:64:30:34:
                    7f:c4:f6:81:55:62:ff:bd:9e:18:63:42:61:1f:43:
                    12:96:54:15:87:bf:5d:98:da:4a:f7:29:0d:18:76:
                    40:e2:57:79:ae:7e:6a:3e:38:d0:5e:56:db:fe:be:
                    8c:43:7f:d3:f8:b6:d0:c7:a7:77:01:70:e9:32:ad:
                    b0:30:db:a8:70:fa:f8:79:15:6e:5f:02:2a:9e:6d:
                    92:a1:86:72:50:8e:2a:f8:45:8d:88:ef:82:29:77:
                    20:56:dd:d2:6b:62:90:57:f3:04:84:31:88:0e:83:
                    f4:92:e1:a2:46:02:5b:31:c5:8d:e2:10:a8:82:13:
                    22:a5:2e:5b:97:39:d5:cc:bf:a1:93:f1:4a:10:1f:
                    f8:49:52:6a:b5:d1:e1:93:53:15:6f:c3:d0:3c:c8:
                    ea:ef:b8:0c:ba:d4:47:cc:e3:6e:f0:74:b5:f9:05:
                    72:aa:47:f1:1e:e2:b0:83:3c:8a:df:be:5a:29:4f:
                    42:f5:21:78:22:61:26:ec:00:f5:52:54:2a:6c:6c:
                    e8:50:d2:fe:7a:bc:09:ac:84:fc:4c:c6:a3:10:11:
                    a1:51
                Exponent: 65537 (0x10001)
        X509v3 extensions:
            X509v3 Basic Constraints: critical
                CA:TRUE
            X509v3 Key Usage: critical
                Certificate Sign
            X509v3 Subject Alternative Name: critical
                URI:urn:uuid:EUTP
            X509v3 Subject Key Identifier: 
                6E:AB:BD:02:91:03:48:B4:A3:E8:04:3E:8B:73:BC:D6:57:3E:45:7A
    Signature Algorithm: sha256WithRSAEncryption
    Signature Value:
        62:a1:55:22:d1:db:7e:ca:54:14:0d:da:3d:b5:41:10:6a:10:
        b3:b9:49:de:dd:e2:ed:64:91:2d:96:79:74:da:68:b6:bd:31:
        8c:ba:9e:ab:6b:99:f7:f9:71:57:2a:fe:6b:8c:80:0e:1f:0d:
        a9:db:d8:f6:90:ef:c5:31:75:2a:04:57:3c:81:2a:c7:50:a4:
        9c:a6:33:5d:54:f2:19:f7:88:7b:8e:32:dc:49:78:8a:83:59:
        9d:c0:ca:55:9c:97:fa:bb:a3:a6:36:0e:04:85:ba:fb:b8:3e:
        7d:d0:b2:2f:c4:85:d5:41:c2:6b:75:17:65:44:ce:f3:86:aa:
        a9:c8:ba:80:50:90:73:d5:4d:19:6e:3b:a8:dd:76:a4:85:8c:
        69:0b:92:83:10:05:f1:8a:c0:74:b1:63:ac:4f:2b:36:93:ba:
        3a:5d:d6:71:00:f2:19:b2:8d:32:b8:36:69:2b:4a:76:c9:94:
        2e:01:b4:10:e7:44:ec:b4:c8:72:11:8a:de:6a:4b:22:ae:39:
        b2:b7:19:11:31:95:61:2b:b8:c0:0d:6a:9e:d1:08:2a:7d:17:
        92:61:8a:e5:18:7f:f9:f2:a8:e4:0b:d8:06:78:d8:1d:91:66:
        08:bc:96:d5:71:34:a5:ca:cc:c9:6b:09:81:9f:3c:3f:0b:5f:
        03:a0:30:7b
-----BEGIN CERTIFICATE-----
MIIDJjCCAg6gAwIBAgIBCDANBgkqhkiG9w0BAQsFADAmMQswCQYDVQQGEwJFVTEX
MBUGA1UEAwwORVVUcnVzdGVkUGFydHkwHhcNMjQwNDA3MTY1NTUxWhcNMzQwMjE3
MTY1NTUxWjAmMQswCQYDVQQGEwJFVTEXMBUGA1UEAwwORVVUcnVzdGVkUGFydHkw
ggEiMA0GCSqGSIb3DQEBAQUAA4IBDwAwggEKAoIBAQDOhLzSAM8gZWYFmaGHJ1gj
hBuygzk+os74niZtDANemz6qGitKUkQMjGQwNH/E9oFVYv+9nhhjQmEfQxKWVBWH
v12Y2kr3KQ0YdkDiV3mufmo+ONBeVtv+voxDf9P4ttDHp3cBcOkyrbAw26hw+vh5
FW5fAiqebZKhhnJQjir4RY2I74IpdyBW3dJrYpBX8wSEMYgOg/SS4aJGAlsxxY3i
EKiCEyKlLluXOdXMv6GT8UoQH/hJUmq10eGTUxVvw9A8yOrvuAy61EfM427wdLX5
BXKqR/Ee4rCDPIrfvlopT0L1IXgiYSbsAPVSVCpsbOhQ0v56vAmshPxMxqMQEaFR
AgMBAAGjXzBdMA8GA1UdEwEB/wQFMAMBAf8wDgYDVR0PAQH/BAQDAgIEMBsGA1Ud
EQEB/wQRMA+GDXVybjp1dWlkOkVVVFAwHQYDVR0OBBYEFG6rvQKRA0i0o+gEPotz
vNZXPkV6MA0GCSqGSIb3DQEBCwUAA4IBAQBioVUi0dt+ylQUDdo9tUEQahCzuUne
3eLtZJEtlnl02mi2vTGMup6ra5n3+XFXKv5rjIAOHw2p29j2kO/FMXUqBFc8gSrH
UKScpjNdVPIZ94h7jjLcSXiKg1mdwMpVnJf6u6OmNg4Ehbr7uD590LIvxIXVQcJr
dRdlRM7zhqqpyLqAUJBz1U0Zbjuo3XakhYxpC5KDEAXxisB0sWOsTys2k7o6XdZx
APIZso0yuDZpK0p2yZQuAbQQ50TstMhyEYreaksirjmytxkRMZVhK7jADWqe0Qgq
fReSYYrlGH/58qjkC9gGeNgdkWYIvJbVcTSlyszJawmBnzw/C18DoDB7
-----END CERTIFICATE-----
