Certificate:
    Data:
        Version: 3 (0x2)
        Serial Number: 7 (0x7)
        Signature Algorithm: sha256WithRSAEncryption
        Issuer: C=CZ, CN=CA2
        Validity
            Not Before: Apr  7 16:21:52 2024 GMT
            Not After : Feb 16 16:21:52 2034 GMT
        Subject: C=CZ, CN=intermediate2_ca2
        Subject Public Key Info:
            Public Key Algorithm: rsaEncryption
                Public-Key: (2048 bit)
                Modulus:
                    00:d9:fc:2c:07:24:1c:11:90:23:38:2d:3c:8e:5f:
                    14:66:18:bb:bb:81:7b:4c:d8:a0:7f:b6:8f:03:7b:
                    7a:1a:ba:c3:8a:4b:df:00:a4:4d:7b:29:d3:d4:69:
                    66:1b:12:10:3c:0c:3e:5e:86:83:63:9b:ed:59:8a:
                    1a:9e:b2:e0:42:7c:18:97:4e:25:e4:82:fd:a2:bd:
                    5f:45:a5:4b:31:a5:3c:51:45:78:c9:f4:84:13:1f:
                    8a:b4:5f:4e:5f:ba:e1:b8:d5:ad:65:74:6f:c8:6f:
                    88:3e:00:e8:81:a9:69:66:f8:fa:3b:ef:87:91:b4:
                    a2:9e:70:30:0b:4f:a3:35:2f:ce:e0:fc:64:c4:83:
                    58:8c:76:e0:4b:24:8e:3c:17:54:44:32:65:b7:75:
                    5f:10:be:35:72:87:9e:50:7c:d0:f3:0f:c0:90:61:
                    57:3b:f0:38:6b:5e:c3:b9:2b:da:c9:18:18:76:c1:
                    2d:14:12:58:80:05:c0:6d:c0:d8:6f:ab:11:ad:c6:
                    f3:86:61:24:66:a0:38:99:88:72:cd:af:e6:af:1d:
                    f1:aa:0a:c6:b7:eb:22:d8:33:fd:3d:e5:0f:07:d8:
                    e2:7a:de:75:66:91:6e:70:79:14:cd:3b:92:51:d9:
                    bf:c2:0e:f9:07:69:b1:77:65:c2:7f:3c:ab:bd:b5:
                    52:2d
                Exponent: 65537 (0x10001)
        X509v3 extensions:
            X509v3 Basic Constraints: critical
                CA:TRUE
            X509v3 Key Usage: critical
                Certificate Sign
            X509v3 Subject Alternative Name: critical
                URI:urn:uuid:intermediate2_ca2
            X509v3 Subject Key Identifier: 
                73:1E:DD:70:4C:25:66:1C:B5:4F:3B:D7:85:05:71:4D:98:9D:25:D9
            X509v3 Authority Key Identifier: 
                8C:C7:71:53:35:22:16:47:FB:DF:68:DB:A0:69:21:D9:99:45:30:1F
    Signature Algorithm: sha256WithRSAEncryption
    Signature Value:
        91:9d:49:08:77:8b:53:5a:ca:53:ea:bf:e9:ee:f9:c1:e2:e7:
        a3:bd:70:2d:1f:77:39:7d:43:c3:d3:42:02:dc:66:10:98:49:
        03:a6:27:e3:19:ae:53:31:e9:c7:fa:96:be:27:b9:0c:ac:be:
        8f:d8:ca:d1:ae:1b:c0:24:32:38:ff:26:fd:a0:e7:a3:bd:e8:
        c3:dd:8f:18:6b:04:7c:0a:b6:a4:46:db:37:e5:67:c5:93:f3:
        5e:11:6d:07:60:f4:f7:bd:0b:55:24:12:52:5c:bd:71:02:04:
        b7:8d:4d:ad:42:53:8f:05:05:48:69:cd:fa:20:ab:28:76:e3:
        38:bf:b8:16:b0:d8:f5:da:92:28:13:cc:1e:8f:e3:bc:b1:32:
        a5:98:0f:9c:52:61:fc:c4:f0:ca:1b:d1:12:28:1b:9c:1b:3e:
        f0:f5:43:b3:1c:43:ac:03:b0:24:4a:a0:84:ad:4f:77:b2:a4:
        19:8e:69:50:38:ac:21:fc:db:af:2a:5b:21:47:a0:a2:37:40:
        b9:3d:d0:e1:ef:2f:81:7f:0a:39:c3:94:fe:fd:9b:b6:95:10:
        34:d0:88:fc:83:77:ab:0f:b5:23:1a:78:54:dd:bd:0d:1f:3f:
        ee:24:74:2f:55:0d:b5:24:a6:e5:e1:d3:32:a9:55:14:ee:f8:
        28:24:81:4c
-----BEGIN CERTIFICATE-----
MIIDTjCCAjagAwIBAgIBBzANBgkqhkiG9w0BAQsFADAbMQswCQYDVQQGEwJDWjEM
MAoGA1UEAwwDQ0EyMB4XDTI0MDQwNzE2MjE1MloXDTM0MDIxNjE2MjE1MlowKTEL
MAkGA1UEBhMCQ1oxGjAYBgNVBAMMEWludGVybWVkaWF0ZTJfY2EyMIIBIjANBgkq
hkiG9w0BAQEFAAOCAQ8AMIIBCgKCAQEA2fwsByQcEZAjOC08jl8UZhi7u4F7TNig
f7aPA3t6GrrDikvfAKRNeynT1GlmGxIQPAw+XoaDY5vtWYoanrLgQnwYl04l5IL9
or1fRaVLMaU8UUV4yfSEEx+KtF9OX7rhuNWtZXRvyG+IPgDogalpZvj6O++HkbSi
nnAwC0+jNS/O4PxkxINYjHbgSySOPBdURDJlt3VfEL41coeeUHzQ8w/AkGFXO/A4
a17DuSvayRgYdsEtFBJYgAXAbcDYb6sRrcbzhmEkZqA4mYhyza/mrx3xqgrGt+si
2DP9PeUPB9jiet51ZpFucHkUzTuSUdm/wg75B2mxd2XCfzyrvbVSLQIDAQABo4GO
MIGLMA8GA1UdEwEB/wQFMAMBAf8wDgYDVR0PAQH/BAQDAgIEMCgGA1UdEQEB/wQe
MByGGnVybjp1dWlkOmludGVybWVkaWF0ZTJfY2EyMB0GA1UdDgQWBBRzHt1wTCVm
HLVPO9eFBXFNmJ0l2TAfBgNVHSMEGDAWgBSMx3FTNSIWR/vfaNugaSHZmUUwHzAN
BgkqhkiG9w0BAQsFAAOCAQEAkZ1JCHeLU1rKU+q/6e75weLno71wLR93OX1Dw9NC
AtxmEJhJA6Yn4xmuUzHpx/qWvie5DKy+j9jK0a4bwCQyOP8m/aDno73ow92PGGsE
fAq2pEbbN+VnxZPzXhFtB2D0970LVSQSUly9cQIEt41NrUJTjwUFSGnN+iCrKHbj
OL+4FrDY9dqSKBPMHo/jvLEypZgPnFJh/MTwyhvREigbnBs+8PVDsxxDrAOwJEqg
hK1Pd7KkGY5pUDisIfzbrypbIUegojdAuT3Q4e8vgX8KOcOU/v2btpUQNNCI/IN3
qw+1Ixp4VN29DR8/7iR0L1UNtSSm5eHTMqlVFO74KCSBTA==
-----END CERTIFICATE-----
