Certificate:
    Data:
        Version: 3 (0x2)
        Serial Number: 3 (0x3)
        Signature Algorithm: sha256WithRSAEncryption
        Issuer: C=CZ, CN=intermediate2_ca2
        Validity
            Not Before: Apr  7 16:21:54 2024 GMT
            Not After : Feb 15 16:21:54 2034 GMT
        Subject: C=CZ, CN=intermediate1_ca2
        Subject Public Key Info:
            Public Key Algorithm: rsaEncryption
                Public-Key: (2048 bit)
                Modulus:
                    00:ce:75:28:4b:2a:2b:16:81:33:df:fd:92:60:ba:
                    e0:93:02:50:c9:be:c2:c5:35:e1:32:37:75:24:74:
                    99:06:b7:62:17:a5:53:4e:1d:ae:37:21:17:42:43:
                    5a:e1:cd:39:db:a1:f3:b7:f8:9a:4b:98:64:d4:5c:
                    40:bb:4b:6e:f5:2c:48:38:16:3b:bd:c4:95:78:e3:
                    0d:19:d8:67:6b:cc:73:39:a9:35:ff:e1:22:13:65:
                    d0:6f:07:97:0c:8f:ee:80:50:e5:67:ee:d2:13:e5:
                    6f:5b:c8:03:fa:2c:36:46:8c:1b:5e:53:57:cc:ef:
                    e5:75:bb:6b:a1:e1:d1:85:1e:a5:cc:a0:01:09:df:
                    e4:70:03:28:1f:60:4a:f8:a3:fb:9f:1e:44:62:ec:
                    a2:e9:05:84:02:fa:2d:18:28:11:53:b5:e0:c2:64:
                    59:1d:8d:6e:72:97:a0:f3:16:54:6d:73:f2:52:11:
                    18:53:42:58:eb:88:11:ab:ce:8e:5a:4c:af:bd:57:
                    be:77:73:cb:ed:f3:29:e4:6e:f6:d0:45:7a:69:76:
                    b1:be:c2:ff:5f:e6:8c:62:9f:e1:d1:2d:b8:c1:4f:
                    03:80:57:49:42:de:1a:38:45:64:a7:d9:90:b2:7b:
                    92:c7:ed:6b:56:2b:2f:f7:a2:7c:6d:f5:36:e1:d2:
                    c5:0b
                Exponent: 65537 (0x10001)
        X509v3 extensions:
            X509v3 Basic Constraints: critical
                CA:TRUE
            X509v3 Key Usage: critical
                Certificate Sign
            X509v3 Subject Alternative Name: critical
                URI:urn:uuid:intermediate1_ca2
            X509v3 Subject Key Identifier: 
                28:54:DB:4C:BB:7D:63:E4:87:0E:8C:21:81:FE:09:56:33:63:E6:34
            X509v3 Authority Key Identifier: 
                73:1E:DD:70:4C:25:66:1C:B5:4F:3B:D7:85:05:71:4D:98:9D:25:D9
    Signature Algorithm: sha256WithRSAEncryption
    Signature Value:
        cd:85:6f:bd:08:b3:16:58:92:2c:5c:fc:bb:aa:ed:31:d3:35:
        ff:ae:d8:ad:b4:37:55:6a:31:ee:70:3c:50:6c:44:e4:85:f2:
        6a:05:3a:d5:7d:1c:dd:24:4a:54:75:39:0d:f0:1f:00:19:0a:
        b4:e6:b5:d3:e6:08:17:46:06:e5:18:c3:5a:47:1e:80:be:f3:
        b9:ab:24:2f:6c:10:fe:13:15:4e:8e:28:7c:40:d6:f7:20:1a:
        af:cf:3a:f0:26:8f:87:ab:8b:e0:88:bb:60:43:dc:ac:da:33:
        36:c3:a5:09:04:e7:aa:cd:24:f2:38:0c:96:43:a7:1c:d2:83:
        81:ee:b8:27:0e:c6:bc:12:a1:bb:b6:59:19:79:d1:e9:fe:cc:
        1d:df:45:1c:28:4e:9e:90:4b:c7:33:9c:51:98:f1:bd:d8:d9:
        dd:d7:e2:82:8b:6f:ed:1d:f5:7a:28:0f:3a:23:c9:cf:8f:07:
        86:09:3e:5f:d5:07:56:45:d4:9f:8d:36:46:52:4f:85:c6:04:
        9d:1d:94:c6:d4:0f:e5:90:ac:98:47:97:8b:a2:05:16:62:a1:
        27:0e:69:23:0e:0a:57:6d:36:63:9b:65:3c:0d:f8:d5:a7:72:
        1c:20:bd:5d:43:e9:2e:c6:16:06:40:c6:18:b1:cd:c7:cf:c6:
        50:f5:82:d1
-----BEGIN CERTIFICATE-----
MIIDXDCCAkSgAwIBAgIBAzANBgkqhkiG9w0BAQsFADApMQswCQYDVQQGEwJDWjEa
MBgGA1UEAwwRaW50ZXJtZWRpYXRlMl9jYTIwHhcNMjQwNDA3MTYyMTU0WhcNMzQw
MjE1MTYyMTU0WjApMQswCQYDVQQGEwJDWjEaMBgGA1UEAwwRaW50ZXJtZWRpYXRl
MV9jYTIwggEiMA0GCSqGSIb3DQEBAQUAA4IBDwAwggEKAoIBAQDOdShLKisWgTPf
/ZJguuCTAlDJvsLFNeEyN3UkdJkGt2IXpVNOHa43IRdCQ1rhzTnbofO3+JpLmGTU
XEC7S271LEg4Fju9xJV44w0Z2GdrzHM5qTX/4SITZdBvB5cMj+6AUOVn7tIT5W9b
yAP6LDZGjBteU1fM7+V1u2uh4dGFHqXMoAEJ3+RwAygfYEr4o/ufHkRi7KLpBYQC
+i0YKBFTteDCZFkdjW5yl6DzFlRtc/JSERhTQljriBGrzo5aTK+9V753c8vt8ynk
bvbQRXppdrG+wv9f5oxin+HRLbjBTwOAV0lC3ho4RWSn2ZCye5LH7WtWKy/3onxt
9Tbh0sULAgMBAAGjgY4wgYswDwYDVR0TAQH/BAUwAwEB/zAOBgNVHQ8BAf8EBAMC
AgQwKAYDVR0RAQH/BB4wHIYadXJuOnV1aWQ6aW50ZXJtZWRpYXRlMV9jYTIwHQYD
VR0OBBYEFChU20y7fWPkhw6MIYH+CVYzY+Y0MB8GA1UdIwQYMBaAFHMe3XBMJWYc
tU8714UFcU2YnSXZMA0GCSqGSIb3DQEBCwUAA4IBAQDNhW+9CLMWWJIsXPy7qu0x
0zX/rtittDdVajHucDxQbETkhfJqBTrVfRzdJEpUdTkN8B8AGQq05rXT5ggXRgbl
GMNaRx6AvvO5qyQvbBD+ExVOjih8QNb3IBqvzzrwJo+Hq4vgiLtgQ9ys2jM2w6UJ
BOeqzSTyOAyWQ6cc0oOB7rgnDsa8EqG7tlkZedHp/swd30UcKE6ekEvHM5xRmPG9
2Nnd1+KCi2/tHfV6KA86I8nPjweGCT5f1QdWRdSfjTZGUk+FxgSdHZTG1A/lkKyY
R5eLogUWYqEnDmkjDgpXbTZjm2U8DfjVp3IcIL1dQ+kuxhYGQMYYsc3Hz8ZQ9YLR
-----END CERTIFICATE-----
