Certificate:
    Data:
        Version: 3 (0x2)
        Serial Number: 10 (0xa)
        Signature Algorithm: sha256WithRSAEncryption
        Issuer: C=PL, CN=PLTrustedParty
        Validity
            Not Before: Apr  7 16:56:50 2024 GMT
            Not After : Feb 17 16:56:50 2034 GMT
        Subject: C=PL, CN=PLTrustedParty
        Subject Public Key Info:
            Public Key Algorithm: rsaEncryption
                Public-Key: (2048 bit)
                Modulus:
                    00:ce:2d:29:bb:3e:42:bd:19:98:9a:d7:84:87:40:
                    8a:05:f3:4c:34:b6:7b:db:0d:3f:8c:b0:fc:e9:55:
                    99:0f:37:59:4b:88:46:a9:c0:9d:2d:82:fd:e1:49:
                    96:81:c9:0e:db:e1:87:f2:84:fc:d5:46:eb:e4:a3:
                    44:66:3d:4c:a6:88:9a:6b:92:09:2a:2a:7a:dc:36:
                    87:53:68:8b:f9:52:0e:76:0b:20:e1:02:23:c9:64:
                    7b:aa:b9:79:65:5b:9e:dc:97:e4:6a:69:d4:6b:a0:
                    6d:a5:de:10:cb:2c:ce:cd:d5:c4:99:e6:8b:16:de:
                    f3:9a:e0:18:d9:ba:2f:13:a2:4d:a1:e9:7c:f3:cd:
                    89:1f:ff:54:f3:7b:d2:1b:89:63:24:ea:b5:18:83:
                    c4:f3:56:83:e9:e4:24:b8:27:4e:ad:79:4d:cb:53:
                    ce:82:10:93:3c:ff:50:78:38:a8:1f:a7:85:18:bb:
                    c4:84:96:28:76:ef:02:5b:e6:c4:30:c0:97:9c:7f:
                    3a:fb:b0:b9:36:85:40:0c:93:f4:93:58:8d:35:15:
                    2c:17:25:83:37:ef:3b:28:b5:07:fe:80:25:21:22:
                    0b:a5:fd:2d:9d:0d:3f:49:45:a7:db:5d:b7:3d:f2:
                    3b:10:7f:16:b1:4d:b7:b1:76:c2:63:77:71:34:f9:
                    10:89
                Exponent: 65537 (0x10001)
        X509v3 extensions:
            X509v3 Basic Constraints: critical
                CA:TRUE
            X509v3 Key Usage: critical
                Certificate Sign
            X509v3 Subject Alternative Name: critical
                URI:urn:uuid:PLTP
            X509v3 Subject Key Identifier: 
                B4:5B:AF:9C:1C:D3:E9:0A:84:60:A6:A6:B2:A4:38:A9:42:F3:AD:88
    Signature Algorithm: sha256WithRSAEncryption
    Signature Value:
        1e:60:fa:f1:bf:80:90:5c:15:61:76:5e:a2:5b:85:07:a4:a6:
        61:71:99:9e:46:05:65:47:08:55:3e:a8:f3:78:52:df:b2:0d:
        80:1b:fa:12:38:de:b1:e7:2f:db:6f:2a:56:aa:92:62:01:d0:
        bb:3e:c6:c0:db:1f:a4:ae:99:39:67:d0:52:b8:bf:7b:d1:72:
        7b:73:ae:66:d3:2f:32:c1:e2:f0:35:84:9d:8a:02:e5:b8:bc:
        54:4d:59:84:b7:a6:85:3f:f5:0c:e5:2f:72:a5:62:27:21:1b:
        cc:9c:87:a5:97:90:43:6f:d7:a7:07:fd:f1:d0:fc:9d:d4:4e:
        65:d6:e1:4c:cd:e9:2f:3e:26:05:80:da:bd:64:db:4e:22:5f:
        52:8f:17:0b:c2:27:94:37:bf:f0:4c:40:3f:be:08:b1:bd:46:
        26:e7:1b:ca:e5:a9:c2:3b:c2:69:fd:6f:a8:b8:de:41:6d:ba:
        62:ac:a2:70:2c:45:b2:fd:fa:4d:7c:93:27:2e:70:0c:e1:46:
        fd:ec:f6:55:04:63:00:e2:a3:9b:8a:49:b0:e5:7c:3b:ef:d5:
        47:16:ce:3e:b7:60:e8:dc:ac:ab:98:3b:07:8a:f6:ad:3e:09:
        6b:9d:5f:c2:b0:2e:d1:15:fd:10:a7:76:79:a3:f1:e8:7c:25:
        4b:77:da:6e
-----BEGIN CERTIFICATE-----
MIIDJjCCAg6gAwIBAgIBCjANBgkqhkiG9w0BAQsFADAmMQswCQYDVQQGEwJQTDEX
MBUGA1UEAwwOUExUcnVzdGVkUGFydHkwHhcNMjQwNDA3MTY1NjUwWhcNMzQwMjE3
MTY1NjUwWjAmMQswCQYDVQQGEwJQTDEXMBUGA1UEAwwOUExUcnVzdGVkUGFydHkw
ggEiMA0GCSqGSIb3DQEBAQUAA4IBDwAwggEKAoIBAQDOLSm7PkK9GZia14SHQIoF
80w0tnvbDT+MsPzpVZkPN1lLiEapwJ0tgv3hSZaByQ7b4YfyhPzVRuvko0RmPUym
iJprkgkqKnrcNodTaIv5Ug52CyDhAiPJZHuquXllW57cl+RqadRroG2l3hDLLM7N
1cSZ5osW3vOa4BjZui8Tok2h6XzzzYkf/1Tze9IbiWMk6rUYg8TzVoPp5CS4J06t
eU3LU86CEJM8/1B4OKgfp4UYu8SElih27wJb5sQwwJecfzr7sLk2hUAMk/STWI01
FSwXJYM37zsotQf+gCUhIgul/S2dDT9JRafbXbc98jsQfxaxTbexdsJjd3E0+RCJ
AgMBAAGjXzBdMA8GA1UdEwEB/wQFMAMBAf8wDgYDVR0PAQH/BAQDAgIEMBsGA1Ud
EQEB/wQRMA+GDXVybjp1dWlkOlBMVFAwHQYDVR0OBBYEFLRbr5wc0+kKhGCmprKk
OKlC862IMA0GCSqGSIb3DQEBCwUAA4IBAQAeYPrxv4CQXBVhdl6iW4UHpKZhcZme
RgVlRwhVPqjzeFLfsg2AG/oSON6x5y/bbypWqpJiAdC7PsbA2x+krpk5Z9BSuL97
0XJ7c65m0y8yweLwNYSdigLluLxUTVmEt6aFP/UM5S9ypWInIRvMnIell5BDb9en
B/3x0Pyd1E5l1uFMzekvPiYFgNq9ZNtOIl9SjxcLwieUN7/wTEA/vgixvUYm5xvK
5anCO8Jp/W+ouN5BbbpirKJwLEWy/fpNfJMnLnAM4Ub97PZVBGMA4qObikmw5Xw7
79VHFs4+t2Do3KyrmDsHivatPglrnV/CsC7RFf0Qp3Z5o/HofCVLd9pu
-----END CERTIFICATE-----
