Certificate:
    Data:
        Version: 3 (0x2)
        Serial Number: 3 (0x3)
        Signature Algorithm: sha256WithRSAEncryption
        Issuer: C=PL, CN=intermediate2_ca4
        Validity
            Not Before: Apr  7 16:30:24 2024 GMT
            Not After : Feb 15 16:30:24 2034 GMT
        Subject: C=PL, CN=intermediate1_ca4
        Subject Public Key Info:
            Public Key Algorithm: rsaEncryption
                Public-Key: (2048 bit)
                Modulus:
                    00:f2:07:e9:ab:8e:3a:06:92:bb:e3:6f:e0:5f:76:
                    7f:d9:55:f6:d8:01:97:a6:43:72:fb:64:96:cb:16:
                    04:8a:00:4b:f6:01:36:ef:6e:da:38:38:88:9d:27:
                    1a:e9:6a:1e:7d:95:14:9c:23:53:36:4c:38:21:b4:
                    0b:bc:a5:88:46:91:e0:29:25:d2:a9:2b:25:bb:92:
                    29:d9:f0:99:ed:51:32:15:7c:7e:46:93:f7:9c:97:
                    b0:76:b5:58:65:4c:3f:bc:41:f6:35:38:cf:ba:96:
                    1c:a7:4b:f5:59:da:c2:3c:73:c6:5c:3a:67:07:d9:
                    9e:cb:d8:68:b9:a5:25:1a:af:15:ff:5d:ed:7c:f6:
                    ba:35:c0:5a:0d:8d:8c:f7:0f:15:54:05:d5:d2:d4:
                    b8:cd:0b:0b:dc:2b:a6:04:3a:f3:0f:59:a7:18:cb:
                    57:7e:fc:34:c5:01:16:9b:40:7a:73:31:b2:a4:c1:
                    1a:56:d3:55:b9:6e:d5:48:94:06:45:9f:c7:e4:84:
                    d1:50:47:39:12:72:8e:cd:c5:82:47:c8:3c:0b:b1:
                    b2:a2:cd:ea:00:1f:3b:5b:dd:b6:d8:3f:19:2e:e0:
                    c9:93:84:be:8a:40:d2:a8:20:f9:24:1f:a8:b6:76:
                    0e:ec:99:58:a1:57:f8:e7:e0:e2:84:e1:7c:6d:87:
                    9d:9f
                Exponent: 65537 (0x10001)
        X509v3 extensions:
            X509v3 Basic Constraints: critical
                CA:TRUE
            X509v3 Key Usage: critical
                Certificate Sign
            X509v3 Subject Alternative Name: critical
                URI:urn:uuid:intermediate1_ca4
            X509v3 Subject Key Identifier: 
                0D:03:11:B8:B2:87:6A:49:EA:A0:83:F1:78:34:22:CB:94:32:0F:89
            X509v3 Authority Key Identifier: 
                0C:6C:7E:9C:2E:CF:0E:C3:92:C3:84:D8:F2:68:C9:70:3D:A0:6D:11
    Signature Algorithm: sha256WithRSAEncryption
    Signature Value:
        86:32:de:b6:ec:a9:65:d0:68:dc:09:29:04:78:36:88:0b:ea:
        60:87:d1:12:43:54:db:84:9a:01:2c:f6:d8:5f:f6:82:5b:f9:
        6b:f0:ef:cf:ca:72:09:62:30:35:38:95:4d:25:3a:d2:28:58:
        a7:96:e0:05:f1:4e:92:ec:53:36:4a:6d:9a:62:13:4b:37:51:
        d4:01:14:97:e3:37:c6:0e:ed:b8:2c:9b:bd:7c:01:2c:59:68:
        74:3e:1a:1a:59:55:2d:67:06:6f:9b:9b:e1:a3:2e:3f:d6:37:
        69:dc:80:86:11:8a:72:be:46:2c:df:f9:98:d5:c5:1c:5a:35:
        ea:8c:51:a4:47:ee:3d:96:9d:84:1b:14:88:7e:97:fc:32:fb:
        83:a4:15:20:52:c2:a8:03:d3:e0:99:56:2f:ad:5f:77:e3:31:
        c1:c0:3d:4b:0f:1a:e8:83:1f:b4:4f:61:18:43:84:4b:76:0d:
        71:a2:e0:e2:ce:6e:1f:36:da:d8:66:f8:9f:f4:a9:52:de:8f:
        d3:80:29:62:57:7e:7f:b7:17:b9:b9:da:9f:24:bc:b2:69:14:
        00:22:9a:d5:86:7a:43:79:b7:64:e3:f1:d2:2c:a5:89:0e:b8:
        89:fa:60:57:6a:07:f7:9f:24:29:e9:53:97:9c:0e:f0:da:5b:
        03:c4:07:37
-----BEGIN CERTIFICATE-----
MIIDXDCCAkSgAwIBAgIBAzANBgkqhkiG9w0BAQsFADApMQswCQYDVQQGEwJQTDEa
MBgGA1UEAwwRaW50ZXJtZWRpYXRlMl9jYTQwHhcNMjQwNDA3MTYzMDI0WhcNMzQw
MjE1MTYzMDI0WjApMQswCQYDVQQGEwJQTDEaMBgGA1UEAwwRaW50ZXJtZWRpYXRl
MV9jYTQwggEiMA0GCSqGSIb3DQEBAQUAA4IBDwAwggEKAoIBAQDyB+mrjjoGkrvj
b+Bfdn/ZVfbYAZemQ3L7ZJbLFgSKAEv2ATbvbto4OIidJxrpah59lRScI1M2TDgh
tAu8pYhGkeApJdKpKyW7kinZ8JntUTIVfH5Gk/ecl7B2tVhlTD+8QfY1OM+6lhyn
S/VZ2sI8c8ZcOmcH2Z7L2Gi5pSUarxX/Xe189ro1wFoNjYz3DxVUBdXS1LjNCwvc
K6YEOvMPWacYy1d+/DTFARabQHpzMbKkwRpW01W5btVIlAZFn8fkhNFQRzkSco7N
xYJHyDwLsbKizeoAHztb3bbYPxku4MmThL6KQNKoIPkkH6i2dg7smVihV/jn4OKE
4Xxth52fAgMBAAGjgY4wgYswDwYDVR0TAQH/BAUwAwEB/zAOBgNVHQ8BAf8EBAMC
AgQwKAYDVR0RAQH/BB4wHIYadXJuOnV1aWQ6aW50ZXJtZWRpYXRlMV9jYTQwHQYD
VR0OBBYEFA0DEbiyh2pJ6qCD8Xg0IsuUMg+JMB8GA1UdIwQYMBaAFAxsfpwuzw7D
ksOE2PJoyXA9oG0RMA0GCSqGSIb3DQEBCwUAA4IBAQCGMt627Kll0GjcCSkEeDaI
C+pgh9ESQ1TbhJoBLPbYX/aCW/lr8O/PynIJYjA1OJVNJTrSKFinluAF8U6S7FM2
Sm2aYhNLN1HUARSX4zfGDu24LJu9fAEsWWh0PhoaWVUtZwZvm5vhoy4/1jdp3ICG
EYpyvkYs3/mY1cUcWjXqjFGkR+49lp2EGxSIfpf8MvuDpBUgUsKoA9PgmVYvrV93
4zHBwD1LDxrogx+0T2EYQ4RLdg1xouDizm4fNtrYZvif9KlS3o/TgCliV35/txe5
udqfJLyyaRQAIprVhnpDebdk4/HSLKWJDriJ+mBXagf3nyQp6VOXnA7w2lsDxAc3
-----END CERTIFICATE-----
