Certificate:
    Data:
        Version: 3 (0x2)
        Serial Number: 7 (0x7)
        Signature Algorithm: sha256WithRSAEncryption
        Issuer: C=PL, CN=CA4
        Validity
            Not Before: Apr  7 16:30:23 2024 GMT
            Not After : Feb 16 16:30:23 2034 GMT
        Subject: C=PL, CN=intermediate2_ca4
        Subject Public Key Info:
            Public Key Algorithm: rsaEncryption
                Public-Key: (2048 bit)
                Modulus:
                    00:bd:31:9c:09:9d:31:dd:23:07:d3:bb:70:46:b9:
                    47:dc:7b:b5:31:16:03:82:6d:ac:e1:9d:e3:aa:72:
                    72:81:de:16:fa:1b:11:b0:6b:e7:58:92:06:4c:e6:
                    c1:da:ba:f9:9f:27:cb:45:2b:f6:77:9f:1d:15:41:
                    14:b6:1d:44:e3:98:ea:40:a5:4a:42:0a:e8:e7:11:
                    86:25:21:4f:ef:64:b5:ff:bd:1c:84:24:83:1f:63:
                    e0:a1:41:2a:55:6e:1e:ab:4a:13:06:37:e2:71:f7:
                    ab:16:73:12:84:c0:43:c3:07:7d:9e:f2:4f:21:69:
                    d0:77:fc:e1:86:cc:0c:2a:e5:cd:27:24:6e:f5:ce:
                    3e:e4:44:9e:82:d5:f2:0c:92:f2:ad:45:88:50:15:
                    4e:82:ca:fd:0e:be:ab:af:bc:c4:7f:8c:42:91:bf:
                    03:c5:31:40:4d:84:8b:17:81:6c:9d:69:e1:58:e2:
                    fc:f8:77:ac:b7:eb:a1:2a:15:16:8b:de:b8:8a:c0:
                    b7:ae:f4:7b:0d:c6:ae:da:e8:97:81:57:14:62:88:
                    c3:ea:84:df:3d:94:f9:03:be:1d:4b:94:1f:95:88:
                    dd:fa:ce:c7:43:b9:0f:98:4f:db:62:24:a8:ce:7c:
                    dd:5e:ec:f3:2d:05:a2:a0:0c:4a:7b:10:91:62:88:
                    81:73
                Exponent: 65537 (0x10001)
        X509v3 extensions:
            X509v3 Basic Constraints: critical
                CA:TRUE
            X509v3 Key Usage: critical
                Certificate Sign
            X509v3 Subject Alternative Name: critical
                URI:urn:uuid:intermediate2_ca4
            X509v3 Subject Key Identifier: 
                0C:6C:7E:9C:2E:CF:0E:C3:92:C3:84:D8:F2:68:C9:70:3D:A0:6D:11
            X509v3 Authority Key Identifier: 
                99:2F:5E:0B:2E:E3:B4:4C:37:88:77:46:B9:EE:2A:08:30:0D:12:84
    Signature Algorithm: sha256WithRSAEncryption
    Signature Value:
        4e:fd:0f:b1:3c:cd:dd:ad:85:02:8f:5a:6a:62:0a:5e:cb:0c:
        a3:0e:24:75:a5:46:bf:3a:18:46:f6:7b:86:11:b2:e7:87:d5:
        29:3a:8a:fd:82:5e:89:03:6f:0a:52:6a:dc:1d:76:1f:5d:f2:
        b9:4c:54:f8:d4:6d:4e:fe:a1:fe:6f:68:53:00:4e:82:e8:2a:
        cb:a8:5a:45:34:e8:1a:e0:dd:09:cc:65:c7:ec:b9:c4:9b:56:
        d4:e8:c2:8c:ff:f9:a3:4f:0d:2f:c1:29:11:41:c6:f2:4b:75:
        4a:6f:24:cf:71:03:2a:1e:66:71:3f:aa:ce:1f:53:ca:df:01:
        eb:08:e4:de:a2:14:1f:48:fb:02:a9:b1:f6:5c:a6:80:6b:28:
        2b:83:d6:83:ca:a3:db:50:4b:0a:23:d2:fb:c8:80:8b:1c:ed:
        ca:6a:41:9b:67:84:40:ec:07:84:a9:09:71:a8:80:4d:dd:34:
        8f:b4:df:40:35:b9:52:7d:19:3f:07:99:b5:e4:15:60:d2:9c:
        b9:a5:67:80:9d:75:9a:b1:8c:e7:ee:e0:f0:94:39:08:f5:ae:
        e3:10:02:d5:cf:33:69:90:2b:54:6e:5c:8d:78:9c:9d:0d:1a:
        29:b1:48:4a:eb:4a:7c:47:10:93:15:eb:7f:e3:bd:b7:23:45:
        c5:6a:8e:6e
-----BEGIN CERTIFICATE-----
MIIDTjCCAjagAwIBAgIBBzANBgkqhkiG9w0BAQsFADAbMQswCQYDVQQGEwJQTDEM
MAoGA1UEAwwDQ0E0MB4XDTI0MDQwNzE2MzAyM1oXDTM0MDIxNjE2MzAyM1owKTEL
MAkGA1UEBhMCUEwxGjAYBgNVBAMMEWludGVybWVkaWF0ZTJfY2E0MIIBIjANBgkq
hkiG9w0BAQEFAAOCAQ8AMIIBCgKCAQEAvTGcCZ0x3SMH07twRrlH3Hu1MRYDgm2s
4Z3jqnJygd4W+hsRsGvnWJIGTObB2rr5nyfLRSv2d58dFUEUth1E45jqQKVKQgro
5xGGJSFP72S1/70chCSDH2PgoUEqVW4eq0oTBjficferFnMShMBDwwd9nvJPIWnQ
d/zhhswMKuXNJyRu9c4+5ESegtXyDJLyrUWIUBVOgsr9Dr6rr7zEf4xCkb8DxTFA
TYSLF4FsnWnhWOL8+Hest+uhKhUWi964isC3rvR7Dcau2uiXgVcUYojD6oTfPZT5
A74dS5QflYjd+s7HQ7kPmE/bYiSoznzdXuzzLQWioAxKexCRYoiBcwIDAQABo4GO
MIGLMA8GA1UdEwEB/wQFMAMBAf8wDgYDVR0PAQH/BAQDAgIEMCgGA1UdEQEB/wQe
MByGGnVybjp1dWlkOmludGVybWVkaWF0ZTJfY2E0MB0GA1UdDgQWBBQMbH6cLs8O
w5LDhNjyaMlwPaBtETAfBgNVHSMEGDAWgBSZL14LLuO0TDeId0a57ioIMA0ShDAN
BgkqhkiG9w0BAQsFAAOCAQEATv0PsTzN3a2FAo9aamIKXssMow4kdaVGvzoYRvZ7
hhGy54fVKTqK/YJeiQNvClJq3B12H13yuUxU+NRtTv6h/m9oUwBOgugqy6haRTTo
GuDdCcxlx+y5xJtW1OjCjP/5o08NL8EpEUHG8kt1Sm8kz3EDKh5mcT+qzh9Tyt8B
6wjk3qIUH0j7Aqmx9lymgGsoK4PWg8qj21BLCiPS+8iAixztympBm2eEQOwHhKkJ
caiATd00j7TfQDW5Un0ZPweZteQVYNKcuaVngJ11mrGM5+7g8JQ5CPWu4xAC1c8z
aZArVG5cjXicnQ0aKbFISutKfEcQkxXrf+O9tyNFxWqObg==
-----END CERTIFICATE-----
