Certificate:
    Data:
        Version: 3 (0x2)
        Serial Number: 3 (0x3)
        Signature Algorithm: sha256WithRSAEncryption
        Issuer: C=DE, CN=intermediate2_ca3
        Validity
            Not Before: Apr  7 16:27:16 2024 GMT
            Not After : Feb 15 16:27:16 2034 GMT
        Subject: C=DE, CN=intermediate1_ca3
        Subject Public Key Info:
            Public Key Algorithm: rsaEncryption
                Public-Key: (2048 bit)
                Modulus:
                    00:8d:28:3a:43:4b:14:c3:1a:e3:ef:8c:86:67:e1:
                    8b:e9:7c:ef:b4:e0:78:8f:04:a0:3b:d1:f5:46:6c:
                    13:f4:2b:9d:df:46:0f:f8:c9:26:f3:87:9a:9f:61:
                    09:e7:ab:63:d8:67:d9:d6:89:27:9e:50:12:53:46:
                    cf:71:29:e8:34:45:66:5d:ff:13:bb:53:69:eb:5d:
                    6c:50:77:af:f4:28:a7:7a:29:c5:a8:b3:6f:4f:df:
                    7e:64:13:13:bb:5b:21:99:18:c4:b6:cd:02:34:95:
                    06:24:5a:41:2b:eb:99:c4:d7:2e:17:5d:ec:29:19:
                    a0:b3:f2:2a:36:ed:f7:8c:f9:23:f6:66:c8:a6:af:
                    14:7a:9e:15:5a:2d:2c:48:52:a2:93:f7:da:7d:f9:
                    23:24:70:a6:9c:5f:7c:22:0b:0d:e1:c8:b8:c9:42:
                    51:3d:99:9f:13:83:6e:49:7a:12:85:84:09:56:d3:
                    c6:5e:91:9b:54:7c:0a:19:de:8a:b3:46:ab:54:23:
                    14:5b:91:e6:ff:e2:99:7e:e3:38:af:ad:e6:b5:f5:
                    85:8b:f8:12:94:44:92:0e:1e:8d:b5:f1:e5:19:d5:
                    1d:e7:b8:59:25:25:9f:1b:c1:b7:2a:e3:59:b5:fe:
                    91:3c:fa:06:fa:fb:f7:0d:00:2b:e0:9e:11:a9:4e:
                    7a:0f
                Exponent: 65537 (0x10001)
        X509v3 extensions:
            X509v3 Basic Constraints: critical
                CA:TRUE
            X509v3 Key Usage: critical
                Certificate Sign
            X509v3 Subject Alternative Name: critical
                URI:urn:uuid:intermediate1_ca3
            X509v3 Subject Key Identifier: 
                A6:C4:95:E7:92:31:59:06:1B:70:A2:BE:A2:7B:2A:9D:DF:04:38:F7
            X509v3 Authority Key Identifier: 
                72:65:AD:BA:D9:25:A8:EF:42:54:66:20:8A:7E:33:C4:62:C9:FA:13
    Signature Algorithm: sha256WithRSAEncryption
    Signature Value:
        72:f6:b7:cf:11:e0:fa:17:78:79:6d:5b:37:35:3f:62:43:14:
        b0:73:0b:65:58:df:f9:7f:a3:2b:c6:d8:97:83:f3:d7:5a:d8:
        1b:12:cf:2f:02:ee:83:5d:12:41:74:4c:d1:63:ee:36:ad:87:
        3a:eb:0c:27:d1:10:a5:54:c3:a0:d5:34:8d:e2:4e:bf:4e:47:
        23:58:4f:db:9c:4e:34:bb:41:3b:c9:ad:18:91:1c:6f:d1:4b:
        3b:59:5e:0a:78:4b:29:13:65:bd:50:68:b5:91:be:8e:15:07:
        24:59:a9:18:81:99:8b:77:7d:25:0a:62:42:1b:61:24:8a:6f:
        07:31:5a:85:2e:41:1b:c6:59:d4:a5:af:e8:c5:60:47:d4:7b:
        84:0b:54:15:a4:ff:1d:7a:c9:f9:ad:57:a4:09:a1:2c:61:87:
        60:a4:fd:68:cd:37:a8:1b:f1:0a:f9:f1:e4:d2:ab:e9:55:18:
        28:f5:8a:c5:3f:cc:ae:82:17:91:2f:8f:3e:e6:ba:35:19:c4:
        1f:32:69:aa:cf:89:56:b1:91:49:53:4e:4b:e2:e6:32:dc:13:
        06:20:cd:a0:f2:74:ba:f8:0c:c6:fd:8f:ca:af:80:e0:34:59:
        32:ef:22:35:7d:38:71:21:37:54:e8:a4:10:ff:da:ba:b5:25:
        ba:56:f9:ee
-----BEGIN CERTIFICATE-----
MIIDXDCCAkSgAwIBAgIBAzANBgkqhkiG9w0BAQsFADApMQswCQYDVQQGEwJERTEa
MBgGA1UEAwwRaW50ZXJtZWRpYXRlMl9jYTMwHhcNMjQwNDA3MTYyNzE2WhcNMzQw
MjE1MTYyNzE2WjApMQswCQYDVQQGEwJERTEaMBgGA1UEAwwRaW50ZXJtZWRpYXRl
MV9jYTMwggEiMA0GCSqGSIb3DQEBAQUAA4IBDwAwggEKAoIBAQCNKDpDSxTDGuPv
jIZn4YvpfO+04HiPBKA70fVGbBP0K53fRg/4ySbzh5qfYQnnq2PYZ9nWiSeeUBJT
Rs9xKeg0RWZd/xO7U2nrXWxQd6/0KKd6KcWos29P335kExO7WyGZGMS2zQI0lQYk
WkEr65nE1y4XXewpGaCz8io27feM+SP2ZsimrxR6nhVaLSxIUqKT99p9+SMkcKac
X3wiCw3hyLjJQlE9mZ8Tg25JehKFhAlW08ZekZtUfAoZ3oqzRqtUIxRbkeb/4pl+
4zivrea19YWL+BKURJIOHo218eUZ1R3nuFklJZ8bwbcq41m1/pE8+gb6+/cNACvg
nhGpTnoPAgMBAAGjgY4wgYswDwYDVR0TAQH/BAUwAwEB/zAOBgNVHQ8BAf8EBAMC
AgQwKAYDVR0RAQH/BB4wHIYadXJuOnV1aWQ6aW50ZXJtZWRpYXRlMV9jYTMwHQYD
VR0OBBYEFKbEleeSMVkGG3CivqJ7Kp3fBDj3MB8GA1UdIwQYMBaAFHJlrbrZJajv
QlRmIIp+M8RiyfoTMA0GCSqGSIb3DQEBCwUAA4IBAQBy9rfPEeD6F3h5bVs3NT9i
QxSwcwtlWN/5f6MrxtiXg/PXWtgbEs8vAu6DXRJBdEzRY+42rYc66wwn0RClVMOg
1TSN4k6/TkcjWE/bnE40u0E7ya0YkRxv0Us7WV4KeEspE2W9UGi1kb6OFQckWakY
gZmLd30lCmJCG2Ekim8HMVqFLkEbxlnUpa/oxWBH1HuEC1QVpP8desn5rVekCaEs
YYdgpP1ozTeoG/EK+fHk0qvpVRgo9YrFP8yugheRL48+5ro1GcQfMmmqz4lWsZFJ
U05L4uYy3BMGIM2g8nS6+AzG/Y/Kr4DgNFky7yI1fThxITdU6KQQ/9q6tSW6Vvnu
-----END CERTIFICATE-----
