Certificate:
    Data:
        Version: 3 (0x2)
        Serial Number: 7 (0x7)
        Signature Algorithm: sha256WithRSAEncryption
        Issuer: C=DE, CN=CA3
        Validity
            Not Before: Apr  7 16:27:15 2024 GMT
            Not After : Feb 16 16:27:15 2034 GMT
        Subject: C=DE, CN=intermediate2_ca3
        Subject Public Key Info:
            Public Key Algorithm: rsaEncryption
                Public-Key: (2048 bit)
                Modulus:
                    00:c3:b8:b5:f9:c8:c8:9a:46:cf:81:31:3d:71:2f:
                    13:cb:d4:52:2b:e2:14:46:4c:e0:00:3b:f1:ac:fd:
                    20:a0:67:87:bf:d1:ca:99:64:1e:3b:71:ca:a0:df:
                    5f:84:bd:dd:59:81:aa:f3:4c:cc:be:88:07:14:58:
                    db:0f:67:1e:84:8e:d3:3e:f6:7c:51:54:d6:ba:1d:
                    5b:b8:80:1b:e6:6a:60:51:65:52:b0:03:c6:33:d7:
                    02:d2:51:c4:99:94:e6:d0:dc:19:ec:bf:e4:da:c9:
                    6e:2f:41:d9:4b:3d:d6:ec:12:ca:96:1e:42:82:07:
                    bf:7b:03:ca:c5:d2:7f:c5:1e:36:29:55:64:d8:c0:
                    36:b5:14:d8:43:a1:d7:8c:95:40:98:60:86:ef:75:
                    8e:a6:bc:f5:fa:4a:75:a8:a2:4c:46:8d:4e:ce:b0:
                    5e:3b:ce:dc:2c:8e:f8:6e:94:91:2b:53:f3:d5:ed:
                    41:4b:41:e3:34:0b:97:df:4f:78:04:46:16:98:81:
                    93:d1:15:83:b5:52:56:71:13:ae:d7:ee:63:ba:4f:
                    c8:eb:bf:0d:58:f8:99:6b:1f:c5:1d:35:88:e0:30:
                    db:03:c9:dc:8d:a2:46:c0:35:38:ac:56:f9:c3:cb:
                    37:b7:52:9a:64:6e:2f:d7:c2:cf:b3:0a:81:a4:c5:
                    a5:89
                Exponent: 65537 (0x10001)
        X509v3 extensions:
            X509v3 Basic Constraints: critical
                CA:TRUE
            X509v3 Key Usage: critical
                Certificate Sign
            X509v3 Subject Alternative Name: critical
                URI:urn:uuid:intermediate2_ca3
            X509v3 Subject Key Identifier: 
                72:65:AD:BA:D9:25:A8:EF:42:54:66:20:8A:7E:33:C4:62:C9:FA:13
            X509v3 Authority Key Identifier: 
                CD:C2:BE:E0:05:B2:8C:54:F1:B7:84:69:F6:BB:EC:EB:F9:4F:73:BC
    Signature Algorithm: sha256WithRSAEncryption
    Signature Value:
        5a:3a:89:27:9a:58:12:dc:05:a8:b4:28:f5:f3:2f:6a:73:31:
        d5:1f:19:98:78:27:19:2d:fc:ac:e7:3f:8d:23:c5:c1:c3:3d:
        ed:9d:d4:b9:40:20:bf:39:86:ff:b7:25:c9:b2:a5:cf:95:e0:
        90:4e:84:f0:84:26:80:13:fc:1c:c7:f7:83:21:4c:0b:fb:81:
        18:e3:59:5f:2b:1c:26:5c:c7:41:39:46:78:54:2d:6d:4a:e9:
        37:ab:70:7b:a9:f2:ea:17:41:ea:9a:34:a7:46:aa:da:95:ec:
        0c:a7:e2:7e:64:29:ce:63:85:02:a3:21:cb:e3:47:94:6a:9f:
        ad:18:cf:96:35:df:83:65:f4:cd:b4:10:5f:a7:30:d3:e2:0e:
        0b:4f:5f:0e:c1:ce:56:f1:e6:07:aa:c6:d5:d3:a0:b6:41:7b:
        2c:54:d9:9a:f1:0f:c9:ca:6d:63:a0:86:6c:74:4b:6c:66:6c:
        ac:cc:bc:96:8e:d8:75:2d:75:89:b1:68:e4:9e:3c:03:7a:97:
        08:af:bf:b9:f4:32:c4:b2:0d:98:15:d4:d5:a2:65:7e:6b:7f:
        0c:d6:85:53:b2:94:6f:d7:57:41:3c:8b:1e:7a:01:5e:ed:bb:
        85:a2:38:8f:e7:e4:bb:74:eb:f9:16:20:8a:4b:8a:47:66:00:
        32:54:0c:f2
-----BEGIN CERTIFICATE-----
MIIDTjCCAjagAwIBAgIBBzANBgkqhkiG9w0BAQsFADAbMQswCQYDVQQGEwJERTEM
MAoGA1UEAwwDQ0EzMB4XDTI0MDQwNzE2MjcxNVoXDTM0MDIxNjE2MjcxNVowKTEL
MAkGA1UEBhMCREUxGjAYBgNVBAMMEWludGVybWVkaWF0ZTJfY2EzMIIBIjANBgkq
hkiG9w0BAQEFAAOCAQ8AMIIBCgKCAQEAw7i1+cjImkbPgTE9cS8Ty9RSK+IURkzg
ADvxrP0goGeHv9HKmWQeO3HKoN9fhL3dWYGq80zMvogHFFjbD2cehI7TPvZ8UVTW
uh1buIAb5mpgUWVSsAPGM9cC0lHEmZTm0NwZ7L/k2sluL0HZSz3W7BLKlh5Cgge/
ewPKxdJ/xR42KVVk2MA2tRTYQ6HXjJVAmGCG73WOprz1+kp1qKJMRo1OzrBeO87c
LI74bpSRK1Pz1e1BS0HjNAuX3094BEYWmIGT0RWDtVJWcROu1+5juk/I678NWPiZ
ax/FHTWI4DDbA8ncjaJGwDU4rFb5w8s3t1KaZG4v18LPswqBpMWliQIDAQABo4GO
MIGLMA8GA1UdEwEB/wQFMAMBAf8wDgYDVR0PAQH/BAQDAgIEMCgGA1UdEQEB/wQe
MByGGnVybjp1dWlkOmludGVybWVkaWF0ZTJfY2EzMB0GA1UdDgQWBBRyZa262SWo
70JUZiCKfjPEYsn6EzAfBgNVHSMEGDAWgBTNwr7gBbKMVPG3hGn2u+zr+U9zvDAN
BgkqhkiG9w0BAQsFAAOCAQEAWjqJJ5pYEtwFqLQo9fMvanMx1R8ZmHgnGS38rOc/
jSPFwcM97Z3UuUAgvzmG/7clybKlz5XgkE6E8IQmgBP8HMf3gyFMC/uBGONZXysc
JlzHQTlGeFQtbUrpN6twe6ny6hdB6po0p0aq2pXsDKfifmQpzmOFAqMhy+NHlGqf
rRjPljXfg2X0zbQQX6cw0+IOC09fDsHOVvHmB6rG1dOgtkF7LFTZmvEPycptY6CG
bHRLbGZsrMy8lo7YdS11ibFo5J48A3qXCK+/ufQyxLINmBXU1aJlfmt/DNaFU7KU
b9dXQTyLHnoBXu27haI4j+fku3Tr+RYgikuKR2YAMlQM8g==
-----END CERTIFICATE-----
