Certificate:
    Data:
        Version: 3 (0x2)
        Serial Number: 6 (0x6)
        Signature Algorithm: sha256WithRSAEncryption
        Issuer: C=CZ, CN=CzTrustedParty
        Validity
            Not Before: Apr  7 16:54:08 2024 GMT
            Not After : Feb 17 16:54:08 2034 GMT
        Subject: C=CZ, CN=CzTrustedParty
        Subject Public Key Info:
            Public Key Algorithm: rsaEncryption
                Public-Key: (2048 bit)
                Modulus:
                    00:9c:ae:a3:13:51:74:3c:c9:68:32:78:2a:08:bf:
                    05:10:31:54:56:72:ee:62:10:8f:ef:2a:88:db:44:
                    28:c3:c7:7a:34:66:8c:d1:95:a2:d8:4e:e6:a4:8b:
                    7f:5e:77:20:33:ce:19:3f:98:7b:d2:db:bc:9e:fc:
                    73:82:fe:a9:d5:34:83:04:6b:2f:e9:fd:a5:dd:61:
                    f1:d2:67:28:c3:66:10:1d:84:94:57:34:b7:3e:90:
                    fb:46:94:a3:9b:73:dc:67:66:1b:c5:22:17:13:bc:
                    cd:07:28:d1:ff:5d:52:99:2b:cd:ed:1d:e3:25:ac:
                    24:1b:21:a6:bd:aa:ec:99:45:0d:41:f4:c8:fe:0a:
                    c0:72:68:18:01:1e:bd:7e:3e:5e:ac:06:e2:e3:66:
                    15:28:92:af:26:1a:63:0e:63:78:38:8d:0d:97:1d:
                    b4:eb:68:0c:3b:30:81:eb:c5:d6:f8:72:f0:26:d7:
                    5e:13:f6:6d:42:5c:9c:d2:68:69:be:c9:72:ce:f3:
                    04:02:40:12:e1:6f:f5:fd:aa:ca:79:65:03:06:11:
                    d6:5f:43:71:9c:87:b9:3f:dc:73:72:5a:e6:8a:db:
                    38:46:67:fc:fe:22:f7:f5:ea:67:b9:1e:06:57:08:
                    9c:74:7a:3c:47:0c:74:8a:0b:c0:9e:68:4e:00:0f:
                    03:17
                Exponent: 65537 (0x10001)
        X509v3 extensions:
            X509v3 Basic Constraints: critical
                CA:TRUE
            X509v3 Key Usage: critical
                Certificate Sign
            X509v3 Subject Alternative Name: critical
                URI:urn:uuid:CZTP
            X509v3 Subject Key Identifier: 
                CB:93:91:4B:06:5E:0B:6F:D0:A0:5A:76:ED:C5:29:87:09:F0:41:C7
    Signature Algorithm: sha256WithRSAEncryption
    Signature Value:
        81:fd:bd:67:1d:32:a6:4c:05:ae:c2:ff:34:3b:c2:6a:60:94:
        a7:ed:69:da:a3:08:71:67:b7:cb:fa:18:44:0a:8b:de:e0:58:
        0d:f7:7e:44:1b:c5:69:95:34:ab:f7:e5:d5:43:47:f4:ca:ec:
        c9:31:a5:08:a7:9a:d4:54:c4:eb:09:91:03:8c:81:22:79:16:
        06:8a:8c:62:3e:2e:75:0c:12:48:49:7d:9a:20:4f:82:2e:5e:
        01:3f:ba:b9:4a:21:63:4c:c2:57:7d:78:cf:3d:0d:e4:83:58:
        94:ab:02:4c:34:4e:46:ec:4d:9f:06:80:b7:f8:51:44:12:0e:
        11:42:a9:76:7c:1c:16:b7:3b:98:6f:76:66:4d:c7:90:28:60:
        33:17:d2:83:3f:9c:a7:2b:eb:b8:b8:23:bc:59:2e:95:85:9d:
        eb:19:c3:33:85:cb:03:aa:9b:70:fc:55:68:5c:3e:89:10:8e:
        c7:bf:52:60:6d:8d:de:19:f9:39:bb:0b:50:0b:84:ac:5e:c5:
        8d:14:d0:d8:4c:87:7a:e6:4c:61:f0:6b:f1:cd:0f:77:68:be:
        94:c9:35:c5:e3:21:d1:df:79:b4:63:b0:ac:3b:f7:8f:4a:bd:
        ae:c0:bb:53:12:36:ca:e9:7b:ad:68:b2:ae:91:37:47:8d:dc:
        b4:cb:44:ce
-----BEGIN CERTIFICATE-----
MIIDJjCCAg6gAwIBAgIBBjANBgkqhkiG9w0BAQsFADAmMQswCQYDVQQGEwJDWjEX
MBUGA1UEAwwOQ3pUcnVzdGVkUGFydHkwHhcNMjQwNDA3MTY1NDA4WhcNMzQwMjE3
MTY1NDA4WjAmMQswCQYDVQQGEwJDWjEXMBUGA1UEAwwOQ3pUcnVzdGVkUGFydHkw
ggEiMA0GCSqGSIb3DQEBAQUAA4IBDwAwggEKAoIBAQCcrqMTUXQ8yWgyeCoIvwUQ
MVRWcu5iEI/vKojbRCjDx3o0ZozRlaLYTuaki39edyAzzhk/mHvS27ye/HOC/qnV
NIMEay/p/aXdYfHSZyjDZhAdhJRXNLc+kPtGlKObc9xnZhvFIhcTvM0HKNH/XVKZ
K83tHeMlrCQbIaa9quyZRQ1B9Mj+CsByaBgBHr1+Pl6sBuLjZhUokq8mGmMOY3g4
jQ2XHbTraAw7MIHrxdb4cvAm114T9m1CXJzSaGm+yXLO8wQCQBLhb/X9qsp5ZQMG
EdZfQ3Gch7k/3HNyWuaK2zhGZ/z+Ivf16me5HgZXCJx0ejxHDHSKC8CeaE4ADwMX
AgMBAAGjXzBdMA8GA1UdEwEB/wQFMAMBAf8wDgYDVR0PAQH/BAQDAgIEMBsGA1Ud
EQEB/wQRMA+GDXVybjp1dWlkOkNaVFAwHQYDVR0OBBYEFMuTkUsGXgtv0KBadu3F
KYcJ8EHHMA0GCSqGSIb3DQEBCwUAA4IBAQCB/b1nHTKmTAWuwv80O8JqYJSn7Wna
owhxZ7fL+hhECove4FgN935EG8VplTSr9+XVQ0f0yuzJMaUIp5rUVMTrCZEDjIEi
eRYGioxiPi51DBJISX2aIE+CLl4BP7q5SiFjTMJXfXjPPQ3kg1iUqwJMNE5G7E2f
BoC3+FFEEg4RQql2fBwWtzuYb3ZmTceQKGAzF9KDP5ynK+u4uCO8WS6VhZ3rGcMz
hcsDqptw/FVoXD6JEI7Hv1JgbY3eGfk5uwtQC4SsXsWNFNDYTId65kxh8GvxzQ93
aL6UyTXF4yHR33m0Y7CsO/ePSr2uwLtTEjbK6XutaLKukTdHjdy0y0TO
-----END CERTIFICATE-----
