Certificate:
    Data:
        Version: 3 (0x2)
        Serial Number: 5 (0x5)
        Signature Algorithm: sha256WithRSAEncryption
        Issuer: C=AT, CN=CA1
        Validity
            Not Before: Apr  7 16:18:12 2024 GMT
            Not After : Feb 16 16:18:12 2034 GMT
        Subject: C=AT, CN=intermediate2_ca1
        Subject Public Key Info:
            Public Key Algorithm: rsaEncryption
                Public-Key: (2048 bit)
                Modulus:
                    00:c5:2a:ac:3f:17:5a:5e:3a:09:d0:8b:ea:6c:c4:
                    f1:2b:34:90:b1:24:d4:8a:19:b9:55:35:ce:52:d7:
                    aa:69:07:86:43:0f:4d:bb:f3:f5:44:4c:cc:5c:76:
                    01:92:f0:e0:8d:b6:33:5f:8a:e6:a0:01:cd:71:d3:
                    57:16:1a:be:46:74:f0:a6:2e:56:22:47:73:be:54:
                    70:8e:87:36:0f:b4:3c:ea:35:c6:45:fe:9d:45:8a:
                    7e:b1:8e:6d:df:ab:a0:67:ce:99:58:9f:f4:de:d9:
                    18:f1:88:6a:50:fd:14:f2:dd:ab:84:3c:69:48:0c:
                    90:b0:e1:eb:f6:66:92:d0:8b:9e:98:00:35:95:3d:
                    91:4a:58:9e:66:bd:94:08:03:b0:44:35:cd:bb:a1:
                    7b:30:ce:e9:27:92:5e:1a:95:6c:ab:9f:74:76:94:
                    be:33:30:ee:4f:9f:0a:92:96:2f:24:ef:1e:cd:83:
                    26:5a:b6:e7:33:44:07:7f:cb:88:57:7b:a9:8b:7f:
                    99:91:a3:47:89:b2:64:fc:a5:2f:98:76:eb:1b:28:
                    ca:c7:f6:ad:d2:38:b9:56:bb:1e:49:45:7e:82:04:
                    d1:3e:59:16:3c:05:a2:34:cd:44:a9:ae:3c:e1:4b:
                    45:9f:7d:61:99:36:5d:80:5d:1e:01:95:6d:6f:8d:
                    1a:a1
                Exponent: 65537 (0x10001)
        X509v3 extensions:
            X509v3 Basic Constraints: critical
                CA:TRUE
            X509v3 Key Usage: critical
                Certificate Sign
            X509v3 Subject Alternative Name: critical
                URI:urn:uuid:intermediate2_ca1
            X509v3 Subject Key Identifier: 
                AD:3A:01:D8:B4:EC:BA:C0:9F:7B:45:B1:2C:B9:17:FD:21:3A:4C:D0
            X509v3 Authority Key Identifier: 
                44:50:72:F4:26:DD:CB:02:1B:D2:69:57:CF:07:87:1B:A0:B1:8A:3C
    Signature Algorithm: sha256WithRSAEncryption
    Signature Value:
        d0:28:f7:0f:ad:28:ad:b2:39:cc:6d:80:fd:e1:97:de:96:3b:
        79:9b:1a:e7:30:fe:8b:66:01:2b:cd:4f:0f:4b:c2:df:f6:f8:
        a2:e6:a7:e2:e0:41:d7:5f:7a:b5:5a:35:bc:9f:0f:fc:c3:e6:
        77:d8:eb:7f:f0:6c:fb:34:cd:8d:a8:d7:f7:64:4e:89:f6:00:
        29:4a:4a:c6:b7:9d:c4:75:95:83:2a:97:5f:52:24:08:b2:9b:
        42:93:e2:fc:58:1b:c7:93:76:80:f4:f9:d0:80:f9:d8:74:33:
        d5:ec:f0:c4:0f:53:62:f3:31:ad:a5:d3:5a:81:24:54:b7:bc:
        70:b9:e4:f4:66:0f:2b:c8:25:fb:7b:a8:f0:e3:36:37:83:69:
        25:7a:ae:12:d7:4e:5a:36:0c:b3:04:75:aa:ea:2c:0a:19:57:
        c2:76:09:6c:0b:a7:91:43:85:72:1a:f3:41:dd:7b:08:16:8f:
        da:4f:49:d4:67:19:f2:65:08:1c:76:c3:48:9a:20:90:33:16:
        50:d3:4f:4f:2b:b0:4a:4e:cd:69:78:f7:ac:be:23:e1:e2:85:
        5f:1a:15:6f:f7:26:4c:7a:05:a7:9b:bf:29:59:5b:29:9a:d7:
        52:05:c3:d0:c4:b9:3a:52:79:fd:00:37:12:a9:c0:b2:d5:b5:
        02:cd:72:3a
-----BEGIN CERTIFICATE-----
MIIDTjCCAjagAwIBAgIBBTANBgkqhkiG9w0BAQsFADAbMQswCQYDVQQGEwJBVDEM
MAoGA1UEAwwDQ0ExMB4XDTI0MDQwNzE2MTgxMloXDTM0MDIxNjE2MTgxMlowKTEL
MAkGA1UEBhMCQVQxGjAYBgNVBAMMEWludGVybWVkaWF0ZTJfY2ExMIIBIjANBgkq
hkiG9w0BAQEFAAOCAQ8AMIIBCgKCAQEAxSqsPxdaXjoJ0IvqbMTxKzSQsSTUihm5
VTXOUteqaQeGQw9Nu/P1REzMXHYBkvDgjbYzX4rmoAHNcdNXFhq+RnTwpi5WIkdz
vlRwjoc2D7Q86jXGRf6dRYp+sY5t36ugZ86ZWJ/03tkY8YhqUP0U8t2rhDxpSAyQ
sOHr9maS0IuemAA1lT2RSlieZr2UCAOwRDXNu6F7MM7pJ5JeGpVsq590dpS+MzDu
T58KkpYvJO8ezYMmWrbnM0QHf8uIV3upi3+ZkaNHibJk/KUvmHbrGyjKx/at0ji5
VrseSUV+ggTRPlkWPAWiNM1Eqa484UtFn31hmTZdgF0eAZVtb40aoQIDAQABo4GO
MIGLMA8GA1UdEwEB/wQFMAMBAf8wDgYDVR0PAQH/BAQDAgIEMCgGA1UdEQEB/wQe
MByGGnVybjp1dWlkOmludGVybWVkaWF0ZTJfY2ExMB0GA1UdDgQWBBStOgHYtOy6
wJ97RbEsuRf9ITpM0DAfBgNVHSMEGDAWgBREUHL0Jt3LAhvSaVfPB4cboLGKPDAN
BgkqhkiG9w0BAQsFAAOCAQEA0Cj3D60orbI5zG2A/eGX3pY7eZsa5zD+i2YBK81P
D0vC3/b4ouan4uBB1196tVo1vJ8P/MPmd9jrf/Bs+zTNjajX92ROifYAKUpKxred
xHWVgyqXX1IkCLKbQpPi/Fgbx5N2gPT50ID52HQz1ezwxA9TYvMxraXTWoEkVLe8
cLnk9GYPK8gl+3uo8OM2N4NpJXquEtdOWjYMswR1quosChlXwnYJbAunkUOFchrz
Qd17CBaP2k9J1GcZ8mUIHHbDSJogkDMWUNNPTyuwSk7NaXj3rL4j4eKFXxoVb/cm
THoFp5u/KVlbKZrXUgXD0MS5OlJ5/QA3EqnAstW1As1yOg==
-----END CERTIFICATE-----
