Certificate:
    Data:
        Version: 3 (0x2)
        Serial Number: 2 (0x2)
        Signature Algorithm: sha256WithRSAEncryption
        Issuer: C=AT, CN=intermediate2_ca1
        Validity
            Not Before: Apr  7 16:18:13 2024 GMT
            Not After : Feb 15 16:18:13 2034 GMT
        Subject: C=AT, CN=intermediate1_ca1
        Subject Public Key Info:
            Public Key Algorithm: rsaEncryption
                Public-Key: (2048 bit)
                Modulus:
                    00:f5:a0:b3:99:3f:d3:9f:f3:04:6d:2a:c4:2d:b6:
                    d9:ee:a0:39:43:92:55:3c:80:f4:f0:21:91:b5:a0:
                    5c:d4:cc:d5:bf:1c:da:ce:c5:1d:a6:0f:aa:3a:b9:
                    08:f7:ee:f0:48:52:c5:7e:9d:4c:63:6e:be:66:4b:
                    9f:8b:f3:2b:bd:8c:02:5a:45:0a:d5:7f:9a:6b:4a:
                    c0:63:7a:85:4b:6d:b1:77:45:9e:14:f6:d8:5f:8f:
                    93:b5:be:ca:1a:5e:a0:7d:0a:e9:9e:8d:da:b9:d3:
                    d5:af:f7:04:34:68:a1:d9:f9:d4:21:36:a9:df:d7:
                    30:47:eb:41:64:ba:2b:69:28:d1:08:f6:ca:c0:cc:
                    f8:da:63:f7:76:98:f7:6d:60:c5:86:60:65:1b:0d:
                    33:46:fe:fc:79:55:3d:e3:7b:a2:ff:6f:09:aa:30:
                    29:b1:29:7b:d8:13:d7:5d:c5:8a:a2:9d:5a:8e:8b:
                    b4:fb:e9:b6:b0:b5:e4:05:50:c0:78:b9:c2:bc:5a:
                    54:d5:af:7e:da:02:5c:c8:c5:65:61:dd:9b:a5:bb:
                    e4:29:80:9a:d7:80:57:43:9a:cf:9f:ea:8e:1f:ed:
                    ce:a1:0b:c9:bd:be:34:02:e2:c1:be:69:f8:0f:72:
                    14:90:94:b1:1c:e7:07:a8:72:8c:dc:32:79:72:95:
                    2b:7b
                Exponent: 65537 (0x10001)
        X509v3 extensions:
            X509v3 Basic Constraints: critical
                CA:TRUE
            X509v3 Key Usage: critical
                Certificate Sign
            X509v3 Subject Alternative Name: critical
                URI:urn:uuid:intermediate1_ca1
            X509v3 Subject Key Identifier: 
                E6:D9:4A:13:6E:FC:71:BD:6F:26:D8:F5:50:E9:01:C5:E8:3E:32:3B
            X509v3 Authority Key Identifier: 
                AD:3A:01:D8:B4:EC:BA:C0:9F:7B:45:B1:2C:B9:17:FD:21:3A:4C:D0
    Signature Algorithm: sha256WithRSAEncryption
    Signature Value:
        0a:e5:1f:3f:cd:23:17:33:e1:ae:11:38:7b:1f:d1:d1:7d:c6:
        c1:2f:1a:81:68:16:e0:b1:97:ac:f3:19:d5:81:84:02:7a:03:
        c9:11:6e:98:2a:5c:f1:86:b5:cf:c3:36:e6:78:99:69:29:1d:
        85:87:2d:cb:a8:04:98:31:51:b2:cf:38:ec:75:13:72:33:49:
        a6:9a:11:a4:f6:93:41:f5:86:24:24:12:99:10:75:9d:40:00:
        ee:b6:c0:e6:5f:00:eb:72:8c:e4:0e:c9:90:03:49:ca:ab:35:
        62:07:7e:fa:f1:69:6d:59:7d:bf:9c:c4:3e:37:6f:da:ff:50:
        d7:36:77:14:60:a4:e2:de:99:38:50:e8:ec:7e:6a:64:68:9b:
        df:62:0d:4f:7f:57:6e:2b:29:14:46:bf:b0:22:21:db:68:54:
        96:25:fe:73:06:aa:f6:91:c2:d0:37:9e:fa:68:d7:e3:7e:5d:
        e7:53:92:50:11:42:f7:46:30:05:e1:97:6c:a5:50:62:63:a0:
        46:14:b7:2c:9b:70:9d:37:ce:4a:1c:a8:c9:90:ac:c9:07:e0:
        d9:95:e7:6f:a7:6f:2e:e0:b5:e5:41:bd:82:7a:f5:a5:58:ec:
        20:0b:7a:76:ad:4c:3c:ab:53:c8:6b:7e:a1:ca:cb:cd:70:17:
        33:50:11:3e
-----BEGIN CERTIFICATE-----
MIIDXDCCAkSgAwIBAgIBAjANBgkqhkiG9w0BAQsFADApMQswCQYDVQQGEwJBVDEa
MBgGA1UEAwwRaW50ZXJtZWRpYXRlMl9jYTEwHhcNMjQwNDA3MTYxODEzWhcNMzQw
MjE1MTYxODEzWjApMQswCQYDVQQGEwJBVDEaMBgGA1UEAwwRaW50ZXJtZWRpYXRl
MV9jYTEwggEiMA0GCSqGSIb3DQEBAQUAA4IBDwAwggEKAoIBAQD1oLOZP9Of8wRt
KsQtttnuoDlDklU8gPTwIZG1oFzUzNW/HNrOxR2mD6o6uQj37vBIUsV+nUxjbr5m
S5+L8yu9jAJaRQrVf5prSsBjeoVLbbF3RZ4U9thfj5O1vsoaXqB9Cumejdq509Wv
9wQ0aKHZ+dQhNqnf1zBH60FkuitpKNEI9srAzPjaY/d2mPdtYMWGYGUbDTNG/vx5
VT3je6L/bwmqMCmxKXvYE9ddxYqinVqOi7T76bawteQFUMB4ucK8WlTVr37aAlzI
xWVh3Zulu+QpgJrXgFdDms+f6o4f7c6hC8m9vjQC4sG+afgPchSQlLEc5weocozc
MnlylSt7AgMBAAGjgY4wgYswDwYDVR0TAQH/BAUwAwEB/zAOBgNVHQ8BAf8EBAMC
AgQwKAYDVR0RAQH/BB4wHIYadXJuOnV1aWQ6aW50ZXJtZWRpYXRlMV9jYTEwHQYD
VR0OBBYEFObZShNu/HG9bybY9VDpAcXoPjI7MB8GA1UdIwQYMBaAFK06Adi07LrA
n3tFsSy5F/0hOkzQMA0GCSqGSIb3DQEBCwUAA4IBAQAK5R8/zSMXM+GuETh7H9HR
fcbBLxqBaBbgsZes8xnVgYQCegPJEW6YKlzxhrXPwzbmeJlpKR2Fhy3LqASYMVGy
zzjsdRNyM0mmmhGk9pNB9YYkJBKZEHWdQADutsDmXwDrcozkDsmQA0nKqzViB376
8WltWX2/nMQ+N2/a/1DXNncUYKTi3pk4UOjsfmpkaJvfYg1Pf1duKykURr+wIiHb
aFSWJf5zBqr2kcLQN576aNfjfl3nU5JQEUL3RjAF4ZdspVBiY6BGFLcsm3CdN85K
HKjJkKzJB+DZledvp28u4LXlQb2CevWlWOwgC3p2rUw8q1PIa36hysvNcBczUBE+
-----END CERTIFICATE-----
