Certificate:
    Data:
        Version: 3 (0x2)
        Serial Number: 6 (0x6)
        Signature Algorithm: sha256WithRSAEncryption
        Issuer: C=CZ, CN=CA2
        Validity
            Not Before: Apr  7 16:21:50 2024 GMT
            Not After : Feb 17 16:21:50 2034 GMT
        Subject: C=CZ, CN=CA2
        Subject Public Key Info:
            Public Key Algorithm: rsaEncryption
                Public-Key: (2048 bit)
                Modulus:
                    00:a2:a8:46:9b:df:4d:f1:96:80:ee:93:a0:9c:97:
                    6d:b9:52:f2:38:a2:1b:2d:9c:3b:3c:04:aa:54:8d:
                    8d:4a:1e:d3:cc:2c:74:c1:d0:c1:93:7e:82:be:c0:
                    48:a8:29:cb:df:96:54:8b:ce:43:aa:d0:ca:02:b9:
                    3b:7d:d9:85:0d:69:be:92:04:0a:b1:c6:61:a8:de:
                    dc:3b:fb:be:78:62:be:e1:fa:29:24:22:1f:fe:db:
                    a0:26:4c:76:76:d1:1b:9a:0d:85:02:3a:3b:c3:e0:
                    14:2a:d7:37:95:25:53:bb:48:99:79:5a:eb:8a:36:
                    78:67:b2:8d:e1:5e:b7:6b:0a:0b:b0:13:95:2a:75:
                    d7:7f:a2:d8:ac:84:94:b5:d0:58:38:e9:a7:10:ee:
                    e0:31:df:36:d6:77:4a:98:9e:57:6f:1c:87:3d:26:
                    ab:5f:69:1e:c3:18:ca:e5:0d:ab:3a:91:2e:d4:14:
                    6d:f9:4c:13:b7:a6:33:b7:d5:51:90:82:73:a4:dc:
                    b0:9a:d7:e8:6d:47:9e:ac:04:aa:d1:1f:10:5f:d8:
                    8d:c4:db:19:eb:65:f9:1c:ad:86:2f:ff:35:87:2f:
                    a1:38:2d:bd:5f:c8:50:bb:fc:35:4e:4b:32:8f:b1:
                    22:bd:f5:8b:ff:42:34:a4:52:a0:c6:e5:d5:72:8c:
                    47:05
                Exponent: 65537 (0x10001)
        X509v3 extensions:
            X509v3 Basic Constraints: critical
                CA:TRUE
            X509v3 Key Usage: critical
                Certificate Sign
            X509v3 Subject Alternative Name: critical
                URI:urn:uuid:CA2
            X509v3 Subject Key Identifier: 
                8C:C7:71:53:35:22:16:47:FB:DF:68:DB:A0:69:21:D9:99:45:30:1F
    Signature Algorithm: sha256WithRSAEncryption
    Signature Value:
        04:08:8e:af:05:39:af:7c:d9:bd:a9:17:d3:b5:23:40:c2:2c:
        56:64:37:c3:24:ba:a8:18:36:9e:0c:39:ed:98:39:1e:34:9a:
        c5:c9:ee:72:6a:24:c1:44:24:1c:3c:1c:dc:2c:dc:a5:18:18:
        c1:ef:6b:ae:c0:ab:25:63:5a:84:48:5f:e7:b7:f6:20:45:ea:
        f0:de:24:36:6a:58:25:94:c9:1b:52:56:b1:81:3d:ac:db:cc:
        e8:2b:f0:3f:f6:25:6d:b6:c9:a2:8e:ec:5e:e6:2c:86:37:bc:
        0c:c9:2e:f8:bd:26:b7:81:5e:e9:ff:c2:31:3d:29:ba:0b:ea:
        4f:30:87:a9:f7:e4:ad:0a:15:71:fd:93:8f:5f:62:9a:98:1f:
        6a:04:34:d2:fc:0b:47:7b:5d:d9:c8:be:dd:e1:a3:0f:e0:a5:
        93:4a:b4:39:af:8a:98:ad:10:98:49:1d:87:48:73:55:a4:0c:
        e8:bc:1c:11:12:5a:18:e8:da:86:9f:f2:6d:50:54:f1:1a:b8:
        99:19:e4:69:0b:8c:d9:6c:0f:ab:dc:54:77:22:49:9c:c8:d0:
        5f:61:00:ad:19:97:f3:a5:0a:ad:ea:8a:10:cd:55:8a:ff:de:
        ca:e4:88:8c:3f:96:ab:fb:c0:d3:6f:3d:78:39:18:7c:f6:e9:
        99:75:a2:de
-----BEGIN CERTIFICATE-----
MIIDDzCCAfegAwIBAgIBBjANBgkqhkiG9w0BAQsFADAbMQswCQYDVQQGEwJDWjEM
MAoGA1UEAwwDQ0EyMB4XDTI0MDQwNzE2MjE1MFoXDTM0MDIxNzE2MjE1MFowGzEL
MAkGA1UEBhMCQ1oxDDAKBgNVBAMMA0NBMjCCASIwDQYJKoZIhvcNAQEBBQADggEP
ADCCAQoCggEBAKKoRpvfTfGWgO6ToJyXbblS8jiiGy2cOzwEqlSNjUoe08wsdMHQ
wZN+gr7ASKgpy9+WVIvOQ6rQygK5O33ZhQ1pvpIECrHGYaje3Dv7vnhivuH6KSQi
H/7boCZMdnbRG5oNhQI6O8PgFCrXN5UlU7tImXla64o2eGeyjeFet2sKC7ATlSp1
13+i2KyElLXQWDjppxDu4DHfNtZ3SpieV28chz0mq19pHsMYyuUNqzqRLtQUbflM
E7emM7fVUZCCc6TcsJrX6G1HnqwEqtEfEF/YjcTbGetl+Rythi//NYcvoTgtvV/I
ULv8NU5LMo+xIr31i/9CNKRSoMbl1XKMRwUCAwEAAaNeMFwwDwYDVR0TAQH/BAUw
AwEB/zAOBgNVHQ8BAf8EBAMCAgQwGgYDVR0RAQH/BBAwDoYMdXJuOnV1aWQ6Q0Ey
MB0GA1UdDgQWBBSMx3FTNSIWR/vfaNugaSHZmUUwHzANBgkqhkiG9w0BAQsFAAOC
AQEABAiOrwU5r3zZvakX07UjQMIsVmQ3wyS6qBg2ngw57Zg5HjSaxcnucmokwUQk
HDwc3CzcpRgYwe9rrsCrJWNahEhf57f2IEXq8N4kNmpYJZTJG1JWsYE9rNvM6Cvw
P/YlbbbJoo7sXuYshje8DMku+L0mt4Fe6f/CMT0pugvqTzCHqffkrQoVcf2Tj19i
mpgfagQ00vwLR3td2ci+3eGjD+Clk0q0Oa+KmK0QmEkdh0hzVaQM6LwcERJaGOja
hp/ybVBU8Rq4mRnkaQuM2WwPq9xUdyJJnMjQX2EArRmX86UKreqKEM1Viv/eyuSI
jD+Wq/vA0289eDkYfPbpmXWi3g==
-----END CERTIFICATE-----
