Certificate:
    Data:
        Version: 3 (0x2)
        Serial Number: 9 (0x9)
        Signature Algorithm: sha256WithRSAEncryption
        Issuer: C=DE, CN=DETrustedParty
        Validity
            Not Before: Apr  7 16:56:17 2024 GMT
            Not After : Feb 17 16:56:17 2034 GMT
        Subject: C=DE, CN=DETrustedParty
        Subject Public Key Info:
            Public Key Algorithm: rsaEncryption
                Public-Key: (2048 bit)
                Modulus:
                    00:c5:e9:bf:22:a8:99:aa:4e:0e:43:88:c6:b6:7a:
                    a1:4a:ac:7d:d9:3d:48:5c:7e:64:cb:19:c4:da:47:
                    d3:e3:7d:83:72:29:ad:04:90:ff:90:ad:f1:52:89:
                    99:9b:ff:5c:b8:2a:a6:6f:a6:c3:47:18:ed:bf:d7:
                    12:c9:ce:7d:0b:dc:5e:d8:78:31:e6:a9:ed:c4:01:
                    e1:9b:8a:08:c8:24:97:ec:5a:95:34:36:ef:7a:b9:
                    27:d5:b1:9d:1a:71:1d:cb:a0:e6:45:82:80:9c:46:
                    a6:4e:17:5b:22:f4:20:ad:19:7d:eb:51:43:62:88:
                    8c:ef:7f:e1:dd:7e:31:f3:6b:4d:f0:e8:45:31:6c:
                    ce:cb:19:26:25:00:5d:30:9c:d6:42:47:a7:94:e9:
                    02:11:f3:cb:b8:a1:9d:b6:f5:17:3e:b1:14:88:1c:
                    3e:0b:7e:ab:b5:24:0a:b8:63:63:cf:55:d2:db:24:
                    bf:f4:69:f0:d6:bf:95:a1:f3:cb:8a:0c:ad:e9:49:
                    1b:2e:09:25:ca:62:96:a9:e3:6c:b0:4a:63:e9:61:
                    46:bd:3c:3a:d3:97:8d:e0:61:a3:2c:60:5f:ea:a2:
                    da:e5:1e:f2:66:8e:41:a9:fe:e9:e2:92:d4:fc:3a:
                    cb:3d:55:66:5e:53:6d:79:c6:84:09:77:2f:d3:86:
                    ba:9b
                Exponent: 65537 (0x10001)
        X509v3 extensions:
            X509v3 Basic Constraints: critical
                CA:TRUE
            X509v3 Key Usage: critical
                Certificate Sign
            X509v3 Subject Alternative Name: critical
                URI:urn:uuid:DETP
            X509v3 Subject Key Identifier: 
                8B:DF:DE:FB:1E:1A:96:1F:07:97:46:20:1F:FE:D1:4A:B6:81:D2:F2
    Signature Algorithm: sha256WithRSAEncryption
    Signature Value:
        43:9b:c1:83:7a:2d:08:bb:3a:c6:4b:7b:d6:14:01:ca:cc:13:
        a4:94:b2:50:2c:73:d4:81:95:d5:4e:ff:d4:ce:dc:0a:53:8e:
        26:c1:94:01:d7:da:2e:6e:2b:8b:d7:00:0d:73:db:82:79:d6:
        b4:c1:87:34:fb:c5:68:df:3f:4d:6c:92:56:ac:0c:ad:e9:4c:
        2b:cd:9c:cf:eb:a0:d3:6f:b5:99:70:74:28:b7:44:45:b7:7c:
        c2:2c:e2:bb:f0:68:ff:58:cd:59:5d:00:af:68:1e:17:5e:d0:
        fc:7a:ee:84:38:67:64:8a:13:a8:3f:3a:ca:c1:db:22:5b:63:
        f4:66:29:3b:1d:78:50:96:ff:13:d9:54:49:b9:0d:cd:6c:e0:
        bb:25:ff:64:da:e4:66:cc:ab:18:3e:cf:ba:ad:32:42:59:57:
        98:24:e6:51:b0:d4:44:16:e7:47:90:a8:f9:5b:51:f0:11:cc:
        e3:d2:26:ad:f9:78:ab:77:c8:aa:72:d9:a6:c0:c4:c7:3c:11:
        0b:7e:8b:3b:c4:d4:00:54:db:18:fc:9c:fd:4c:09:b1:e3:74:
        08:64:2b:23:fe:0c:d4:9f:5c:e9:c0:a6:01:d4:60:ce:b5:93:
        cf:bf:b1:cc:d2:fb:d8:b9:32:a8:3e:a9:be:c3:fb:78:ad:31:
        23:d4:b7:71
-----BEGIN CERTIFICATE-----
MIIDJjCCAg6gAwIBAgIBCTANBgkqhkiG9w0BAQsFADAmMQswCQYDVQQGEwJERTEX
MBUGA1UEAwwOREVUcnVzdGVkUGFydHkwHhcNMjQwNDA3MTY1NjE3WhcNMzQwMjE3
MTY1NjE3WjAmMQswCQYDVQQGEwJERTEXMBUGA1UEAwwOREVUcnVzdGVkUGFydHkw
ggEiMA0GCSqGSIb3DQEBAQUAA4IBDwAwggEKAoIBAQDF6b8iqJmqTg5DiMa2eqFK
rH3ZPUhcfmTLGcTaR9PjfYNyKa0EkP+QrfFSiZmb/1y4KqZvpsNHGO2/1xLJzn0L
3F7YeDHmqe3EAeGbigjIJJfsWpU0Nu96uSfVsZ0acR3LoOZFgoCcRqZOF1si9CCt
GX3rUUNiiIzvf+HdfjHza03w6EUxbM7LGSYlAF0wnNZCR6eU6QIR88u4oZ229Rc+
sRSIHD4Lfqu1JAq4Y2PPVdLbJL/0afDWv5Wh88uKDK3pSRsuCSXKYpap42ywSmPp
YUa9PDrTl43gYaMsYF/qotrlHvJmjkGp/uniktT8Oss9VWZeU215xoQJdy/Thrqb
AgMBAAGjXzBdMA8GA1UdEwEB/wQFMAMBAf8wDgYDVR0PAQH/BAQDAgIEMBsGA1Ud
EQEB/wQRMA+GDXVybjp1dWlkOkRFVFAwHQYDVR0OBBYEFIvf3vseGpYfB5dGIB/+
0Uq2gdLyMA0GCSqGSIb3DQEBCwUAA4IBAQBDm8GDei0IuzrGS3vWFAHKzBOklLJQ
LHPUgZXVTv/UztwKU44mwZQB19oubiuL1wANc9uCeda0wYc0+8Vo3z9NbJJWrAyt
6UwrzZzP66DTb7WZcHQot0RFt3zCLOK78Gj/WM1ZXQCvaB4XXtD8eu6EOGdkihOo
PzrKwdsiW2P0Zik7HXhQlv8T2VRJuQ3NbOC7Jf9k2uRmzKsYPs+6rTJCWVeYJOZR
sNREFudHkKj5W1HwEczj0iat+Xird8iqctmmwMTHPBELfos7xNQAVNsY/Jz9TAmx
43QIZCsj/gzUn1zpwKYB1GDOtZPPv7HM0vvYuTKoPqm+w/t4rTEj1Ldx
-----END CERTIFICATE-----
