Certificate:
    Data:
        Version: 3 (0x2)
        Serial Number: 7 (0x7)
        Signature Algorithm: sha256WithRSAEncryption
        Issuer: C=AT, CN=AtTrustedParty
        Validity
            Not Before: Apr  7 16:55:05 2024 GMT
            Not After : Feb 17 16:55:05 2034 GMT
        Subject: C=AT, CN=AtTrustedParty
        Subject Public Key Info:
            Public Key Algorithm: rsaEncryption
                Public-Key: (2048 bit)
                Modulus:
                    00:93:88:25:08:b9:21:71:58:f3:d0:a4:77:fb:df:
                    d5:29:9f:25:3c:a0:1d:58:b1:0f:ba:11:cd:ae:3e:
                    20:34:08:46:d1:09:1e:df:8d:da:6f:ae:66:c6:b5:
                    d1:71:e3:af:a6:c6:b7:b8:fe:86:c5:1e:e5:f2:d7:
                    ea:48:83:4a:38:fd:c9:27:9f:c6:1b:67:58:39:ca:
                    9f:22:5e:88:4d:e4:67:4c:30:dd:05:b6:e5:72:3a:
                    47:84:b5:7b:38:89:51:7b:57:1d:27:16:d4:43:62:
                    56:39:04:f6:a8:72:b0:37:06:eb:c6:0b:c4:0c:d4:
                    78:fa:40:77:d4:45:29:3b:0a:84:9a:52:fd:c4:ff:
                    45:b4:cd:ce:34:96:b8:39:a5:bb:c7:69:f7:22:43:
                    33:b9:35:4d:f0:a5:09:a1:1d:b4:08:14:f1:49:fc:
                    ea:15:94:86:da:fd:99:7a:57:35:76:e1:2e:b8:01:
                    33:75:c5:c2:12:fd:3f:30:af:7a:7e:97:3b:fb:ab:
                    5e:9f:6d:06:65:88:93:58:a8:84:8d:b7:7a:7a:4d:
                    78:ce:c9:9c:8d:63:37:04:04:1b:6b:f0:59:d0:4c:
                    59:0c:ae:f5:2a:a5:3a:ad:df:98:65:a3:b4:5a:6f:
                    3a:12:5a:f7:40:79:3b:af:bf:0f:3b:21:e0:b1:cb:
                    20:a3
                Exponent: 65537 (0x10001)
        X509v3 extensions:
            X509v3 Basic Constraints: critical
                CA:TRUE
            X509v3 Key Usage: critical
                Certificate Sign
            X509v3 Subject Alternative Name: critical
                URI:urn:uuid:ATTP
            X509v3 Subject Key Identifier: 
                8E:45:1C:F5:62:59:D0:5A:5B:FB:87:1A:40:44:ED:31:1C:61:D0:12
    Signature Algorithm: sha256WithRSAEncryption
    Signature Value:
        22:0e:f1:b7:13:cc:fa:64:4b:86:73:2d:aa:6f:00:d9:cc:99:
        a6:ea:ee:bc:63:b9:54:e5:72:05:8c:39:3b:7c:e7:76:39:53:
        56:e2:f6:67:dc:c0:5e:98:60:2b:8d:22:e0:4f:0e:72:80:b0:
        22:0d:c3:c5:99:d2:a8:95:16:86:46:14:f0:23:ba:44:93:ee:
        23:02:5c:e3:2d:7a:73:e8:99:89:2c:1c:b6:cb:13:9b:0d:91:
        58:4b:e8:1e:04:3f:6a:9b:0d:83:0b:6f:0c:18:58:6d:ef:e9:
        26:9f:4c:34:c0:20:ae:0b:e8:8a:3c:0e:f3:c7:f8:c0:8c:14:
        91:b9:93:8f:5a:a0:ad:24:c4:6b:df:fe:ab:0e:95:99:e3:c1:
        7e:2f:06:31:01:73:8f:7d:98:ba:7e:74:02:9c:d1:e2:e7:2b:
        58:d6:93:f0:9d:da:00:35:83:a7:10:f2:f5:7c:05:72:ed:88:
        8e:fd:64:bb:32:fe:7d:fd:ef:19:16:52:f4:24:b0:5f:e7:4d:
        d5:3d:ba:93:39:dd:50:7c:22:a8:2e:27:e8:78:ff:5f:f7:29:
        5f:80:f5:bc:a0:d1:7c:e9:08:27:39:d8:7b:98:40:24:14:24:
        8b:09:23:00:78:79:8d:81:de:57:01:02:f3:bb:e7:45:70:51:
        ed:c7:fd:90
-----BEGIN CERTIFICATE-----
MIIDJjCCAg6gAwIBAgIBBzANBgkqhkiG9w0BAQsFADAmMQswCQYDVQQGEwJBVDEX
MBUGA1UEAwwOQXRUcnVzdGVkUGFydHkwHhcNMjQwNDA3MTY1NTA1WhcNMzQwMjE3
MTY1NTA1WjAmMQswCQYDVQQGEwJBVDEXMBUGA1UEAwwOQXRUcnVzdGVkUGFydHkw
ggEiMA0GCSqGSIb3DQEBAQUAA4IBDwAwggEKAoIBAQCTiCUIuSFxWPPQpHf739Up
nyU8oB1YsQ+6Ec2uPiA0CEbRCR7fjdpvrmbGtdFx46+mxre4/obFHuXy1+pIg0o4
/cknn8YbZ1g5yp8iXohN5GdMMN0FtuVyOkeEtXs4iVF7Vx0nFtRDYlY5BPaocrA3
BuvGC8QM1Hj6QHfURSk7CoSaUv3E/0W0zc40lrg5pbvHafciQzO5NU3wpQmhHbQI
FPFJ/OoVlIba/Zl6VzV24S64ATN1xcIS/T8wr3p+lzv7q16fbQZliJNYqISNt3p6
TXjOyZyNYzcEBBtr8FnQTFkMrvUqpTqt35hlo7RabzoSWvdAeTuvvw87IeCxyyCj
AgMBAAGjXzBdMA8GA1UdEwEB/wQFMAMBAf8wDgYDVR0PAQH/BAQDAgIEMBsGA1Ud
EQEB/wQRMA+GDXVybjp1dWlkOkFUVFAwHQYDVR0OBBYEFI5FHPViWdBaW/uHGkBE
7TEcYdASMA0GCSqGSIb3DQEBCwUAA4IBAQAiDvG3E8z6ZEuGcy2qbwDZzJmm6u68
Y7lU5XIFjDk7fOd2OVNW4vZn3MBemGArjSLgTw5ygLAiDcPFmdKolRaGRhTwI7pE
k+4jAlzjLXpz6JmJLBy2yxObDZFYS+geBD9qmw2DC28MGFht7+kmn0w0wCCuC+iK
PA7zx/jAjBSRuZOPWqCtJMRr3/6rDpWZ48F+LwYxAXOPfZi6fnQCnNHi5ytY1pPw
ndoANYOnEPL1fAVy7YiO/WS7Mv59/e8ZFlL0JLBf503VPbqTOd1QfCKoLifoeP9f
9ylfgPW8oNF86QgnOdh7mEAkFCSLCSMAeHmNgd5XAQLzu+dFcFHtx/2Q
-----END CERTIFICATE-----
